
user/hello/hello:     file format elf32-littlearm
user/hello/hello
architecture: arm, flags 0x00000112:
EXEC_P, HAS_SYMS, D_PAGED
start address 0x00008020

Program Header:
0x70000001 off    0x0000cae0 vaddr 0x0000cae0 paddr 0x0000cae0 align 2**2
         filesz 0x00000008 memsz 0x00000008 flags r--
    LOAD off    0x00008000 vaddr 0x00008000 paddr 0x00008000 align 2**15
         filesz 0x00004ae8 memsz 0x00004ae8 flags r-x
    LOAD off    0x0000cae8 vaddr 0x00014ae8 paddr 0x00014ae8 align 2**15
         filesz 0x00000080 memsz 0x000004d0 flags rw-
   STACK off    0x00000000 vaddr 0x00000000 paddr 0x00000000 align 2**4
         filesz 0x00000000 memsz 0x00000000 flags rwx
private flags = 5000202: [Version5 EABI] [soft-float ABI] [has entry point]

Sections:
Idx Name          Size      VMA       LMA       File off  Algn
  0 .init         00000014  00008000  00008000  00008000  2**2
                  CONTENTS, ALLOC, LOAD, READONLY, CODE
  1 .text         00004114  00008014  00008014  00008014  2**2
                  CONTENTS, ALLOC, LOAD, READONLY, CODE
  2 .fini         00000014  0000c128  0000c128  0000c128  2**2
                  CONTENTS, ALLOC, LOAD, READONLY, CODE
  3 .rodata       000009a4  0000c13c  0000c13c  0000c13c  2**2
                  CONTENTS, ALLOC, LOAD, READONLY, DATA
  4 .ARM.exidx    00000008  0000cae0  0000cae0  0000cae0  2**2
                  CONTENTS, ALLOC, LOAD, READONLY, DATA
  5 .data         00000080  00014ae8  00014ae8  0000cae8  2**3
                  CONTENTS, ALLOC, LOAD, DATA
  6 .bss          00000450  00014b68  00014b68  0000cb68  2**2
                  ALLOC
  7 .comment      00000011  00000000  00000000  0000cb68  2**0
                  CONTENTS, READONLY
  8 .debug_aranges 000001c0  00000000  00000000  0000cb80  2**3
                  CONTENTS, READONLY, DEBUGGING
  9 .debug_info   0000133f  00000000  00000000  0000cd40  2**0
                  CONTENTS, READONLY, DEBUGGING
 10 .debug_abbrev 0000044c  00000000  00000000  0000e07f  2**0
                  CONTENTS, READONLY, DEBUGGING
 11 .debug_line   000009bd  00000000  00000000  0000e4cb  2**0
                  CONTENTS, READONLY, DEBUGGING
 12 .debug_frame  00000108  00000000  00000000  0000ee88  2**2
                  CONTENTS, READONLY, DEBUGGING
 13 .debug_str    00000294  00000000  00000000  0000ef90  2**0
                  CONTENTS, READONLY, DEBUGGING
 14 .debug_loc    00001834  00000000  00000000  0000f224  2**0
                  CONTENTS, READONLY, DEBUGGING
 15 .debug_ranges 00000178  00000000  00000000  00010a58  2**0
                  CONTENTS, READONLY, DEBUGGING
 16 .ARM.attributes 00000034  00000000  00000000  00010bd0  2**0
                  CONTENTS, READONLY
SYMBOL TABLE:
00008000 l    d  .init	00000000 .init
00008014 l    d  .text	00000000 .text
0000c128 l    d  .fini	00000000 .fini
0000c13c l    d  .rodata	00000000 .rodata
0000cae0 l    d  .ARM.exidx	00000000 .ARM.exidx
00014ae8 l    d  .data	00000000 .data
00014b68 l    d  .bss	00000000 .bss
00000000 l    d  .comment	00000000 .comment
00000000 l    d  .debug_aranges	00000000 .debug_aranges
00000000 l    d  .debug_info	00000000 .debug_info
00000000 l    d  .debug_abbrev	00000000 .debug_abbrev
00000000 l    d  .debug_line	00000000 .debug_line
00000000 l    d  .debug_frame	00000000 .debug_frame
00000000 l    d  .debug_str	00000000 .debug_str
00000000 l    d  .debug_loc	00000000 .debug_loc
00000000 l    d  .debug_ranges	00000000 .debug_ranges
00000000 l    d  .ARM.attributes	00000000 .ARM.attributes
00000000 l    df *ABS*	00000000 ../lib/crti.o
00000000 l    df *ABS*	00000000 ../lib/crtn.o
00000000 l    df *ABS*	00000000 hello.c
00000000 l    df *ABS*	00000000 ../lib/crt1.o
00000000 l    df *ABS*	00000000 __libc_start_main.c
0000805c l     F .text	00000004 dummy
00000000 l    df *ABS*	00000000 __environ.c
00000000 l    df *ABS*	00000000 exit.c
000081a8 l     F .text	00000004 dummy
00014b6c l     O .bss	00000004 lock.4273
00000000 l    df *ABS*	00000000 _Exit.c
00000000 l    df *ABS*	00000000 memset.c
00000000 l    df *ABS*	00000000 libc.c
00000000 l    df *ABS*	00000000 printf.c
00000000 l    df *ABS*	00000000 vfprintf.c
00008378 l     F .text	00000098 fmt_u
00008410 l     F .text	00000118 pop_arg
00008528 l     F .text	00000070 pad
00008598 l     F .text	00001760 printf_core
0000c155 l     O .rodata	000001d0 states
0000c325 l     O .rodata	00000010 xdigits
00000000 l    df *ABS*	00000000 fwrite.c
00000000 l    df *ABS*	00000000 stdout.c
00014ae8 l     O .data	00000080 f
00014b78 l     O .bss	00000408 buf
00000000 l    df *ABS*	00000000 __stdio_seek.c
00000000 l    df *ABS*	00000000 __stdio_close.c
00000000 l    df *ABS*	00000000 __stdout_write.c
00000000 l    df *ABS*	00000000 __towrite.c
00000000 l    df *ABS*	00000000 __lockfile.c
00000000 l    df *ABS*	00000000 memcpy.c
00000000 l    df *ABS*	00000000 memchr.c
00000000 l    df *ABS*	00000000 __errno_location.c
00014f80 l     O .bss	00000004 e.3613
00000000 l    df *ABS*	00000000 strerror.c
0000c378 l     O .rodata	0000070c errmsg
0000ca84 l     O .rodata	00000058 errid
00000000 l    df *ABS*	00000000 frexpl.c
00000000 l    df *ABS*	00000000 frexp.c
00000000 l    df *ABS*	00000000 wctomb.c
00000000 l    df *ABS*	00000000 wcrtomb.c
00000000 l    df *ABS*	00000000 syscall.o
00000000 l    df *ABS*	00000000 syscall_ret.c
00000000 l    df *ABS*	00000000 __stdio_write.c
00000000 l    df *ABS*	00000000 __stdio_exit.c
0000a8ec l     F .text	00000070 close_file
0000cadc l     O .rodata	00000004 dummy_file
00000000 l    df *ABS*	00000000 dummy.c
00000000 l    df *ABS*	00000000 _udivsi3.o
0000a9b8 l       .text	00000000 .udivsi3_skip_div0_test
00000000 l    df *ABS*	00000000 _divsi3.o
0000aad4 l       .text	00000000 .divsi3_skip_div0_test
00000000 l    df *ABS*	00000000 _dvmd_tls.o
00000000 l    df *ABS*	00000000 _ashldi3.o
00000000 l    df *ABS*	00000000 _arm_addsubdf3.o
00000000 l    df *ABS*	00000000 _arm_muldivdf3.o
00000000 l    df *ABS*	00000000 _arm_cmpdf2.o
00000000 l    df *ABS*	00000000 _arm_fixdfsi.o
00000000 l    df *ABS*	00000000 _arm_fixunsdfsi.o
00000000 l    df *ABS*	00000000 _aeabi_uldivmod.o
00000000 l    df *ABS*	00000000 bpabi.c
00000000 l    df *ABS*	00000000 libgcc2.c
00000000 l    df *ABS*	00000000 libgcc2.c
00000000 l    df *ABS*	00000000 _clzsi2.o
00000000 l    df *ABS*	00000000 
00014ae8 l       .data	00000000 __fini_array_end
00014ae8 l       .data	00000000 __fini_array_start
00014ae8 l       .data	00000000 __init_array_end
00014ae8 l       .data	00000000 __init_array_start
0000b5e8 g     F .text	00000018 .hidden __aeabi_dcmple
0000b760 g     F .text	00000040 .hidden __gnu_uldivmod_helper
0000ac18 g     F .text	0000001c .hidden __ashldi3
0000a788 g     F .text	00000000 __syscall
0000b4fc g     F .text	00000088 .hidden __cmpdf2
0000b4fc g     F .text	00000088 .hidden __eqdf2
0000b7a0 g     F .text	000004d0 .hidden __divdi3
0000aff0 g     F .text	00000060 .hidden __floatdidf
0000c36c g     O .rodata	00000004 __stdout_used
00008344 g     F .text	00000034 printf
0000c370 g     O .rodata	00000004 stdout
00008060 g     F .text	000000e8 __init_libc
0000a7b8 g     F .text	00000028 __syscall_ret
00009fdc g     F .text	00000068 __stdout_write
0000a550 g     F .text	00000058 strerror
0000c374 g     O .rodata	00000004 __towrite_used
0000b4ec g     F .text	00000098 .hidden __gtdf2
00014fb8 g       .bss	00000000 _bss_end__
0000b5a0 g     F .text	00000018 .hidden __aeabi_cdcmple
0000a0a0 g     F .text	00000004 __unlockfile
00014f84 g     O .bss	00000004 __hwcap
0000a7e0 g     F .text	0000010c __stdio_write
0000a044 g     F .text	00000054 __towrite
0000a098 g     F .text	00000004 __flush_on_exit
0000a0a4 g     F .text	000003d8 memcpy
0000b584 g     F .text	00000034 .hidden __aeabi_cdrcmple
0000af74 g     F .text	00000028 .hidden __floatsidf
0000b4f4 g     F .text	00000090 .hidden __ltdf2
0000b6e0 g     F .text	00000000 .hidden __aeabi_uldivmod
00014f88 g     O .bss	0000002c __libc
0000a9b8 g     F .text	000000f4 .hidden __udivsi3
0000b68c g     F .text	00000054 .hidden __fixunsdfsi
00014b68 g       .bss	00000000 __bss_start__
0000af50 g     F .text	00000024 .hidden __aeabi_ui2d
0000ac34 g     F .text	00000000 .hidden __aeabi_drsub
0000a66c g     F .text	00000010 wctomb
0000cadc  w    O .rodata	00000004 __stdin_used
0000b5d0 g     F .text	00000018 .hidden __aeabi_dcmplt
00009f74 g     F .text	00000050 __stdio_seek
00014b68  w    O .bss	00000004 _environ
0000af9c g     F .text	00000040 .hidden __extendsfdf2
0000b2e0 g     F .text	0000020c .hidden __aeabi_ddiv
0000a09c g     F .text	00000004 __lockfile
0000ac40 g     F .text	00000310 .hidden __adddf3
0000b050 g     F .text	00000290 .hidden __aeabi_dmul
00014b68 g     O .bss	00000004 __environ
00008230 g     F .text	0000001c _Exit
0000bc70 g     F .text	00000470 .hidden __udivdi3
0000af50 g     F .text	00000024 .hidden __floatunsidf
00008000 g     F .init	00000000 _init
000081a8  w    F .text	00000004 __funcs_on_exit
0000b630 g     F .text	0000005c .hidden __fixdfsi
00014b68  w    O .bss	00000004 environ
0000ac40 g     F .text	00000310 .hidden __aeabi_dadd
0000b4f4 g     F .text	00000090 .hidden __ledf2
0000afdc g     F .text	00000074 .hidden __aeabi_ul2d
0000aacc g     F .text	00000000 .hidden __aeabi_idiv
0000b618 g     F .text	00000018 .hidden __aeabi_dcmpgt
0000c0e0 g     F .text	00000048 .hidden __clzsi2
0000a47c g     F .text	000000c8 memchr
00014fb8 g       .bss	00000000 __bss_end__
00014b68  w    O .bss	00000004 ___environ
0000b600 g     F .text	00000018 .hidden __aeabi_dcmpge
0000ac3c g     F .text	00000314 .hidden __aeabi_dsub
00014b74 g     O .bss	00000004 __progname
00008020 g     F .text	00000000 _start
0000afdc g     F .text	00000074 .hidden __floatundidf
00014b74  w    O .bss	00000004 program_invocation_short_name
0000af74 g     F .text	00000028 .hidden __aeabi_i2d
0000ac14  w    F .text	00000004 .hidden __aeabi_ldiv0
0000b2e0 g     F .text	0000020c .hidden __divdf3
0000b050 g     F .text	00000290 .hidden __muldf3
00009e10 g     F .text	000000e0 __fwritex
000081a8  w    F .text	00000004 __seek_on_exit
00014b68 g       .bss	00000000 __bss_start
0000824c g     F .text	000000f8 memset
00008014 g     F .text	0000000c main
0000a95c g     F .text	00000058 __stdio_exit
0000a9b8 g     F .text	00000000 .hidden __aeabi_uidiv
0000a9b4 g     F .text	00000004 __lock
0000aff0 g     F .text	00000060 .hidden __aeabi_l2d
00014fb8 g       .bss	00000000 __end__
0000aacc g     F .text	00000128 .hidden __divsi3
0000b4fc g     F .text	00000088 .hidden __nedf2
0000c128 g     F .fini	00000000 _fini
0000b68c g     F .text	00000054 .hidden __aeabi_d2uiz
0000ac18 g     F .text	0000001c .hidden __aeabi_llsl
00009ef0  w    F .text	00000084 fwrite_unlocked
0000aaac g     F .text	00000020 .hidden __aeabi_uidivmod
0000b5b8 g     F .text	00000018 .hidden __aeabi_dcmpeq
00009ef0 g     F .text	00000084 fwrite
00014b68 g       .data	00000000 _edata
00014fb8 g       .bss	00000000 _end
00009fc4 g     F .text	00000018 __stdio_close
0000a544 g     F .text	0000000c __errno_location
000081ac g     F .text	00000084 exit
0000cadc  w    O .rodata	00000004 __stderr_used
0000b630 g     F .text	0000005c .hidden __aeabi_d2iz
0000a5a8 g     F .text	00000004 frexpl
0000ac14  w    F .text	00000004 .hidden __aeabi_idiv0
00008148 g     F .text	00000060 __libc_start_main
00014b70  w    O .bss	00000004 program_invocation_name
0000b5a0 g     F .text	00000018 .hidden __aeabi_cdcmpeq
0000b4ec g     F .text	00000098 .hidden __gedf2
00080000 g       .ARM.attributes	00000000 _stack
0000b71c g     F .text	00000044 .hidden __gnu_ldivmod_helper
0000af9c g     F .text	00000040 .hidden __aeabi_f2d
00014ae8 g       .data	00000000 __data_start
0000ac3c g     F .text	00000314 .hidden __subdf3
0000abf4 g     F .text	00000020 .hidden __aeabi_idivmod
0000a67c g     F .text	0000010c wcrtomb
00014fb4 g     O .bss	00000004 __sysinfo
0000a5ac g     F .text	000000c0 frexp
00009cf8 g     F .text	00000118 vfprintf
00014b70 g     O .bss	00000004 __progname_full



Disassembly of section .init:

00008000 <_init>:
    8000:	e92d4001 	push	{r0, lr}
    8004:	e8bd4001 	pop	{r0, lr}
    8008:	e31e0001 	tst	lr, #1
    800c:	01a0f00e 	moveq	pc, lr
    8010:	e12fff1e 	bx	lr

Disassembly of section .text:

00008014 <main>:
    8014:	e59f0000 	ldr	r0, [pc]	; 801c <main+0x8>
    8018:	ea0000c9 	b	8344 <printf>
    801c:	0000c13c 	andeq	ip, r0, ip, lsr r1

00008020 <_start>:
    8020:	e3a0b000 	mov	fp, #0
    8024:	e3a0e000 	mov	lr, #0
    8028:	e49d1004 	pop	{r1}		; (ldr r1, [sp], #4)
    802c:	e1a0200d 	mov	r2, sp
    8030:	e59f3018 	ldr	r3, [pc, #24]	; 8050 <_start+0x30>
    8034:	e52db004 	push	{fp}		; (str fp, [sp, #-4]!)
    8038:	e52d0004 	push	{r0}		; (str r0, [sp, #-4]!)
    803c:	e52d3004 	push	{r3}		; (str r3, [sp, #-4]!)
    8040:	e59f300c 	ldr	r3, [pc, #12]	; 8054 <_start+0x34>
    8044:	e59f000c 	ldr	r0, [pc, #12]	; 8058 <_start+0x38>
    8048:	eb00003e 	bl	8148 <__libc_start_main>
    804c:	eafffffe 	b	804c <_start+0x2c>
    8050:	0000c128 	andeq	ip, r0, r8, lsr #2
    8054:	00008000 	andeq	r8, r0, r0
    8058:	00008014 	andeq	r8, r0, r4, lsl r0

0000805c <dummy>:
    805c:	e12fff1e 	bx	lr

00008060 <__init_libc>:
    8060:	e92d4030 	push	{r4, r5, lr}
    8064:	e24dd09c 	sub	sp, sp, #156	; 0x9c
    8068:	e1a05000 	mov	r5, r0
    806c:	e1a04001 	mov	r4, r1
    8070:	e1a0000d 	mov	r0, sp
    8074:	e3a01000 	mov	r1, #0
    8078:	e3a02098 	mov	r2, #152	; 0x98
    807c:	eb000072 	bl	824c <memset>
    8080:	e59f30a8 	ldr	r3, [pc, #168]	; 8130 <__init_libc+0xd0>
    8084:	e3a00000 	mov	r0, #0
    8088:	e5835000 	str	r5, [r3]
    808c:	e7953100 	ldr	r3, [r5, r0, lsl #2]
    8090:	e2800001 	add	r0, r0, #1
    8094:	e3530000 	cmp	r3, #0
    8098:	1afffffb 	bne	808c <__init_libc+0x2c>
    809c:	e59f3090 	ldr	r3, [pc, #144]	; 8134 <__init_libc+0xd4>
    80a0:	e0850100 	add	r0, r5, r0, lsl #2
    80a4:	e583000c 	str	r0, [r3, #12]
    80a8:	e1a02003 	mov	r2, r3
    80ac:	e5903000 	ldr	r3, [r0]
    80b0:	e3530000 	cmp	r3, #0
    80b4:	0a000006 	beq	80d4 <__init_libc+0x74>
    80b8:	e3530025 	cmp	r3, #37	; 0x25
    80bc:	928d1098 	addls	r1, sp, #152	; 0x98
    80c0:	90813103 	addls	r3, r1, r3, lsl #2
    80c4:	95901004 	ldrls	r1, [r0, #4]
    80c8:	e2800008 	add	r0, r0, #8
    80cc:	95031098 	strls	r1, [r3, #-152]	; 0x98
    80d0:	eafffff5 	b	80ac <__init_libc+0x4c>
    80d4:	e59d1040 	ldr	r1, [sp, #64]	; 0x40
    80d8:	e59f3058 	ldr	r3, [pc, #88]	; 8138 <__init_libc+0xd8>
    80dc:	e3540000 	cmp	r4, #0
    80e0:	e5831000 	str	r1, [r3]
    80e4:	e59f3050 	ldr	r3, [pc, #80]	; 813c <__init_libc+0xdc>
    80e8:	e59d1080 	ldr	r1, [sp, #128]	; 0x80
    80ec:	e5831000 	str	r1, [r3]
    80f0:	e59d3018 	ldr	r3, [sp, #24]
    80f4:	e5823028 	str	r3, [r2, #40]	; 0x28
    80f8:	0a00000a 	beq	8128 <__init_libc+0xc8>
    80fc:	e59f303c 	ldr	r3, [pc, #60]	; 8140 <__init_libc+0xe0>
    8100:	e5834000 	str	r4, [r3]
    8104:	e59f3038 	ldr	r3, [pc, #56]	; 8144 <__init_libc+0xe4>
    8108:	e5834000 	str	r4, [r3]
    810c:	e1a02003 	mov	r2, r3
    8110:	e4d43001 	ldrb	r3, [r4], #1
    8114:	e3530000 	cmp	r3, #0
    8118:	0a000002 	beq	8128 <__init_libc+0xc8>
    811c:	e353002f 	cmp	r3, #47	; 0x2f
    8120:	05824000 	streq	r4, [r2]
    8124:	eafffff9 	b	8110 <__init_libc+0xb0>
    8128:	e28dd09c 	add	sp, sp, #156	; 0x9c
    812c:	e8bd8030 	pop	{r4, r5, pc}
    8130:	00014b68 	andeq	r4, r1, r8, ror #22
    8134:	00014f88 	andeq	r4, r1, r8, lsl #31
    8138:	00014f84 	andeq	r4, r1, r4, lsl #31
    813c:	00014fb4 			; <UNDEFINED> instruction: 0x00014fb4
    8140:	00014b70 	andeq	r4, r1, r0, ror fp
    8144:	00014b74 	andeq	r4, r1, r4, ror fp

00008148 <__libc_start_main>:
    8148:	e92d43f8 	push	{r3, r4, r5, r6, r7, r8, r9, lr}
    814c:	e2816001 	add	r6, r1, #1
    8150:	e0826106 	add	r6, r2, r6, lsl #2
    8154:	e1a08000 	mov	r8, r0
    8158:	e1a07001 	mov	r7, r1
    815c:	e1a00006 	mov	r0, r6
    8160:	e5921000 	ldr	r1, [r2]
    8164:	e1a04002 	mov	r4, r2
    8168:	ebffffbc 	bl	8060 <__init_libc>
    816c:	ebffffa3 	bl	8000 <_init>
    8170:	e59f5028 	ldr	r5, [pc, #40]	; 81a0 <__libc_start_main+0x58>
    8174:	e59f9028 	ldr	r9, [pc, #40]	; 81a4 <__libc_start_main+0x5c>
    8178:	e1550009 	cmp	r5, r9
    817c:	2a000002 	bcs	818c <__libc_start_main+0x44>
    8180:	e4953004 	ldr	r3, [r5], #4
    8184:	e12fff33 	blx	r3
    8188:	eafffffa 	b	8178 <__libc_start_main+0x30>
    818c:	e1a01004 	mov	r1, r4
    8190:	e1a02006 	mov	r2, r6
    8194:	e1a00007 	mov	r0, r7
    8198:	e12fff38 	blx	r8
    819c:	eb000002 	bl	81ac <exit>
    81a0:	00014ae8 	andeq	r4, r1, r8, ror #21
    81a4:	00014ae8 	andeq	r4, r1, r8, ror #21

000081a8 <__funcs_on_exit>:
    81a8:	e12fff1e 	bx	lr

000081ac <exit>:
    81ac:	e92d4080 	push	{r7, lr}
    81b0:	e59f6068 	ldr	r6, [pc, #104]	; 8220 <exit+0x74>
    81b4:	e59f8068 	ldr	r8, [pc, #104]	; 8224 <exit+0x78>
    81b8:	e1a05000 	mov	r5, r0
    81bc:	e5964000 	ldr	r4, [r6]
    81c0:	e3a01001 	mov	r1, #1
    81c4:	e1a00004 	mov	r0, r4
    81c8:	e59f2050 	ldr	r2, [pc, #80]	; 8220 <exit+0x74>
    81cc:	e12fff38 	blx	r8
    81d0:	e3500000 	cmp	r0, #0
    81d4:	1afffff8 	bne	81bc <exit+0x10>
    81d8:	e3540000 	cmp	r4, #0
    81dc:	0a000002 	beq	81ec <exit+0x40>
    81e0:	e3a0701d 	mov	r7, #29
    81e4:	ef000000 	svc	0x00000000
    81e8:	eafffff3 	b	81bc <exit+0x10>
    81ec:	ebffffed 	bl	81a8 <__funcs_on_exit>
    81f0:	e59f4030 	ldr	r4, [pc, #48]	; 8228 <exit+0x7c>
    81f4:	e59f6030 	ldr	r6, [pc, #48]	; 822c <exit+0x80>
    81f8:	e1540006 	cmp	r4, r6
    81fc:	9a000002 	bls	820c <exit+0x60>
    8200:	e5343004 	ldr	r3, [r4, #-4]!
    8204:	e12fff33 	blx	r3
    8208:	eafffffa 	b	81f8 <exit+0x4c>
    820c:	eb000fc5 	bl	c128 <_fini>
    8210:	eb0007a0 	bl	a098 <__flush_on_exit>
    8214:	ebffffe3 	bl	81a8 <__funcs_on_exit>
    8218:	e1a00005 	mov	r0, r5
    821c:	eb000003 	bl	8230 <_Exit>
    8220:	00014b6c 	andeq	r4, r1, ip, ror #22
    8224:	ffff0fc0 			; <UNDEFINED> instruction: 0xffff0fc0
    8228:	00014ae8 	andeq	r4, r1, r8, ror #21
    822c:	00014ae8 	andeq	r4, r1, r8, ror #21

00008230 <_Exit>:
    8230:	e92d4080 	push	{r7, lr}
    8234:	e1a03000 	mov	r3, r0
    8238:	e3a070f8 	mov	r7, #248	; 0xf8
    823c:	ef000000 	svc	0x00000000
    8240:	e3a07001 	mov	r7, #1
    8244:	e1a00003 	mov	r0, r3
    8248:	eafffffb 	b	823c <_Exit+0xc>

0000824c <memset>:
    824c:	e3520000 	cmp	r2, #0
    8250:	e92d4030 	push	{r4, r5, lr}
    8254:	08bd8030 	popeq	{r4, r5, pc}
    8258:	e6ef1071 	uxtb	r1, r1
    825c:	e0803002 	add	r3, r0, r2
    8260:	e3520002 	cmp	r2, #2
    8264:	e5431001 	strb	r1, [r3, #-1]
    8268:	e5c01000 	strb	r1, [r0]
    826c:	98bd8030 	popls	{r4, r5, pc}
    8270:	e3520006 	cmp	r2, #6
    8274:	e5431002 	strb	r1, [r3, #-2]
    8278:	e5c01001 	strb	r1, [r0, #1]
    827c:	e5431003 	strb	r1, [r3, #-3]
    8280:	e5c01002 	strb	r1, [r0, #2]
    8284:	98bd8030 	popls	{r4, r5, pc}
    8288:	e3520008 	cmp	r2, #8
    828c:	e5431004 	strb	r1, [r3, #-4]
    8290:	e5c01003 	strb	r1, [r0, #3]
    8294:	98bd8030 	popls	{r4, r5, pc}
    8298:	e2603000 	rsb	r3, r0, #0
    829c:	e2033003 	and	r3, r3, #3
    82a0:	e0632002 	rsb	r2, r3, r2
    82a4:	e0811401 	add	r1, r1, r1, lsl #8
    82a8:	e3c24003 	bic	r4, r2, #3
    82ac:	e0811801 	add	r1, r1, r1, lsl #16
    82b0:	e080c003 	add	ip, r0, r3
    82b4:	e7801003 	str	r1, [r0, r3]
    82b8:	e3540008 	cmp	r4, #8
    82bc:	e08c3004 	add	r3, ip, r4
    82c0:	e5031004 	str	r1, [r3, #-4]
    82c4:	98bd8030 	popls	{r4, r5, pc}
    82c8:	e3540018 	cmp	r4, #24
    82cc:	e58c1004 	str	r1, [ip, #4]
    82d0:	e58c1008 	str	r1, [ip, #8]
    82d4:	e503100c 	str	r1, [r3, #-12]
    82d8:	e5031008 	str	r1, [r3, #-8]
    82dc:	98bd8030 	popls	{r4, r5, pc}
    82e0:	e20c5004 	and	r5, ip, #4
    82e4:	e2855018 	add	r5, r5, #24
    82e8:	e3a02000 	mov	r2, #0
    82ec:	e58c100c 	str	r1, [ip, #12]
    82f0:	e58c1010 	str	r1, [ip, #16]
    82f4:	e58c1014 	str	r1, [ip, #20]
    82f8:	e58c1018 	str	r1, [ip, #24]
    82fc:	e1822001 	orr	r2, r2, r1
    8300:	e503101c 	str	r1, [r3, #-28]
    8304:	e5031018 	str	r1, [r3, #-24]
    8308:	e5031014 	str	r1, [r3, #-20]
    830c:	e5031010 	str	r1, [r3, #-16]
    8310:	e1a03001 	mov	r3, r1
    8314:	e08c1005 	add	r1, ip, r5
    8318:	e08cc004 	add	ip, ip, r4
    831c:	e061500c 	rsb	r5, r1, ip
    8320:	e355001f 	cmp	r5, #31
    8324:	9a000005 	bls	8340 <memset+0xf4>
    8328:	e1c120f0 	strd	r2, [r1]
    832c:	e1c120f8 	strd	r2, [r1, #8]
    8330:	e1c121f0 	strd	r2, [r1, #16]
    8334:	e1c121f8 	strd	r2, [r1, #24]
    8338:	e2811020 	add	r1, r1, #32
    833c:	eafffff6 	b	831c <memset+0xd0>
    8340:	e8bd8030 	pop	{r4, r5, pc}

00008344 <printf>:
    8344:	e92d000f 	push	{r0, r1, r2, r3}
    8348:	e92d4007 	push	{r0, r1, r2, lr}
    834c:	e59f3020 	ldr	r3, [pc, #32]	; 8374 <printf+0x30>
    8350:	e28d2014 	add	r2, sp, #20
    8354:	e5930000 	ldr	r0, [r3]
    8358:	e59d1010 	ldr	r1, [sp, #16]
    835c:	e58d2004 	str	r2, [sp, #4]
    8360:	eb000664 	bl	9cf8 <vfprintf>
    8364:	e28dd00c 	add	sp, sp, #12
    8368:	e49de004 	pop	{lr}		; (ldr lr, [sp], #4)
    836c:	e28dd010 	add	sp, sp, #16
    8370:	e12fff1e 	bx	lr
    8374:	0000c370 	andeq	ip, r0, r0, ror r3

00008378 <fmt_u>:
    8378:	e92d41f0 	push	{r4, r5, r6, r7, r8, lr}
    837c:	e1a04000 	mov	r4, r0
    8380:	e1a05001 	mov	r5, r1
    8384:	e1a08002 	mov	r8, r2
    8388:	e3e06000 	mvn	r6, #0
    838c:	e3a07000 	mov	r7, #0
    8390:	e1550007 	cmp	r5, r7
    8394:	01540006 	cmpeq	r4, r6
    8398:	9a00000e 	bls	83d8 <fmt_u+0x60>
    839c:	e1a00004 	mov	r0, r4
    83a0:	e1a01005 	mov	r1, r5
    83a4:	e3a0200a 	mov	r2, #10
    83a8:	e3a03000 	mov	r3, #0
    83ac:	eb000ccb 	bl	b6e0 <__aeabi_uldivmod>
    83b0:	e2822030 	add	r2, r2, #48	; 0x30
    83b4:	e5682001 	strb	r2, [r8, #-1]!
    83b8:	e1a00004 	mov	r0, r4
    83bc:	e1a01005 	mov	r1, r5
    83c0:	e3a0200a 	mov	r2, #10
    83c4:	e3a03000 	mov	r3, #0
    83c8:	eb000cc4 	bl	b6e0 <__aeabi_uldivmod>
    83cc:	e1a04000 	mov	r4, r0
    83d0:	e1a05001 	mov	r5, r1
    83d4:	eaffffed 	b	8390 <fmt_u+0x18>
    83d8:	e3540000 	cmp	r4, #0
    83dc:	0a000009 	beq	8408 <fmt_u+0x90>
    83e0:	e1a00004 	mov	r0, r4
    83e4:	e3a0100a 	mov	r1, #10
    83e8:	eb0009af 	bl	aaac <__aeabi_uidivmod>
    83ec:	e2811030 	add	r1, r1, #48	; 0x30
    83f0:	e5681001 	strb	r1, [r8, #-1]!
    83f4:	e1a00004 	mov	r0, r4
    83f8:	e3a0100a 	mov	r1, #10
    83fc:	eb00096d 	bl	a9b8 <__aeabi_uidiv>
    8400:	e1a04000 	mov	r4, r0
    8404:	eafffff3 	b	83d8 <fmt_u+0x60>
    8408:	e1a00008 	mov	r0, r8
    840c:	e8bd81f0 	pop	{r4, r5, r6, r7, r8, pc}

00008410 <pop_arg>:
    8410:	e3510014 	cmp	r1, #20
    8414:	812fff1e 	bxhi	lr
    8418:	e2411009 	sub	r1, r1, #9
    841c:	e3510009 	cmp	r1, #9
    8420:	979ff101 	ldrls	pc, [pc, r1, lsl #2]
    8424:	ea00003e 	b	8524 <pop_arg+0x114>
    8428:	00008450 	andeq	r8, r0, r0, asr r4
    842c:	00008468 	andeq	r8, r0, r8, ror #8
    8430:	0000847c 	andeq	r8, r0, ip, ror r4
    8434:	00008490 	muleq	r0, r0, r4
    8438:	000084ac 	andeq	r8, r0, ip, lsr #9
    843c:	000084c0 	andeq	r8, r0, r0, asr #9
    8440:	000084d4 	ldrdeq	r8, [r0], -r4
    8444:	000084ec 	andeq	r8, r0, ip, ror #9
    8448:	00008508 	andeq	r8, r0, r8, lsl #10
    844c:	00008508 	andeq	r8, r0, r8, lsl #10
    8450:	e5923000 	ldr	r3, [r2]
    8454:	e2831004 	add	r1, r3, #4
    8458:	e5821000 	str	r1, [r2]
    845c:	e5933000 	ldr	r3, [r3]
    8460:	e5803000 	str	r3, [r0]
    8464:	e12fff1e 	bx	lr
    8468:	e5923000 	ldr	r3, [r2]
    846c:	e2831004 	add	r1, r3, #4
    8470:	e5821000 	str	r1, [r2]
    8474:	e5932000 	ldr	r2, [r3]
    8478:	ea000019 	b	84e4 <pop_arg+0xd4>
    847c:	e5923000 	ldr	r3, [r2]
    8480:	e2831004 	add	r1, r3, #4
    8484:	e5821000 	str	r1, [r2]
    8488:	e5932000 	ldr	r2, [r3]
    848c:	ea00001a 	b	84fc <pop_arg+0xec>
    8490:	e5923000 	ldr	r3, [r2]
    8494:	e2833007 	add	r3, r3, #7
    8498:	e3c33007 	bic	r3, r3, #7
    849c:	e2831008 	add	r1, r3, #8
    84a0:	e5821000 	str	r1, [r2]
    84a4:	e1c320d0 	ldrd	r2, [r3]
    84a8:	ea000014 	b	8500 <pop_arg+0xf0>
    84ac:	e5923000 	ldr	r3, [r2]
    84b0:	e2831004 	add	r1, r3, #4
    84b4:	e5821000 	str	r1, [r2]
    84b8:	e1d320f0 	ldrsh	r2, [r3]
    84bc:	ea000008 	b	84e4 <pop_arg+0xd4>
    84c0:	e5923000 	ldr	r3, [r2]
    84c4:	e2831004 	add	r1, r3, #4
    84c8:	e5821000 	str	r1, [r2]
    84cc:	e1d320b0 	ldrh	r2, [r3]
    84d0:	ea000009 	b	84fc <pop_arg+0xec>
    84d4:	e5923000 	ldr	r3, [r2]
    84d8:	e2831004 	add	r1, r3, #4
    84dc:	e5821000 	str	r1, [r2]
    84e0:	e1d320d0 	ldrsb	r2, [r3]
    84e4:	e1a03fc2 	asr	r3, r2, #31
    84e8:	ea000004 	b	8500 <pop_arg+0xf0>
    84ec:	e5923000 	ldr	r3, [r2]
    84f0:	e2831004 	add	r1, r3, #4
    84f4:	e5821000 	str	r1, [r2]
    84f8:	e5d32000 	ldrb	r2, [r3]
    84fc:	e3a03000 	mov	r3, #0
    8500:	e1c020f0 	strd	r2, [r0]
    8504:	e12fff1e 	bx	lr
    8508:	e5923000 	ldr	r3, [r2]
    850c:	e2833007 	add	r3, r3, #7
    8510:	e3c33007 	bic	r3, r3, #7
    8514:	e2831008 	add	r1, r3, #8
    8518:	e5821000 	str	r1, [r2]
    851c:	e1c320d0 	ldrd	r2, [r3]
    8520:	e1c020f0 	strd	r2, [r0]
    8524:	e12fff1e 	bx	lr

00008528 <pad>:
    8528:	e92d4070 	push	{r4, r5, r6, lr}
    852c:	e24ddc01 	sub	sp, sp, #256	; 0x100
    8530:	e1a05000 	mov	r5, r0
    8534:	e59d0110 	ldr	r0, [sp, #272]	; 0x110
    8538:	e3100a12 	tst	r0, #73728	; 0x12000
    853c:	1a000013 	bne	8590 <pad+0x68>
    8540:	e1530002 	cmp	r3, r2
    8544:	aa000011 	bge	8590 <pad+0x68>
    8548:	e0634002 	rsb	r4, r3, r2
    854c:	e1a0000d 	mov	r0, sp
    8550:	e3540c01 	cmp	r4, #256	; 0x100
    8554:	31a02004 	movcc	r2, r4
    8558:	23a02c01 	movcs	r2, #256	; 0x100
    855c:	e1a06004 	mov	r6, r4
    8560:	ebffff39 	bl	824c <memset>
    8564:	e35400ff 	cmp	r4, #255	; 0xff
    8568:	e1a0000d 	mov	r0, sp
    856c:	9a000004 	bls	8584 <pad+0x5c>
    8570:	e3a01c01 	mov	r1, #256	; 0x100
    8574:	e1a02005 	mov	r2, r5
    8578:	eb000624 	bl	9e10 <__fwritex>
    857c:	e2444c01 	sub	r4, r4, #256	; 0x100
    8580:	eafffff7 	b	8564 <pad+0x3c>
    8584:	e6ef1076 	uxtb	r1, r6
    8588:	e1a02005 	mov	r2, r5
    858c:	eb00061f 	bl	9e10 <__fwritex>
    8590:	e28ddc01 	add	sp, sp, #256	; 0x100
    8594:	e8bd8070 	pop	{r4, r5, r6, pc}

00008598 <printf_core>:
    8598:	e92d4ff0 	push	{r4, r5, r6, r7, r8, r9, sl, fp, lr}
    859c:	e3a05000 	mov	r5, #0
    85a0:	e24ddfab 	sub	sp, sp, #684	; 0x2ac
    85a4:	e1a0a000 	mov	sl, r0
    85a8:	e1a06001 	mov	r6, r1
    85ac:	e58d2038 	str	r2, [sp, #56]	; 0x38
    85b0:	e58d3044 	str	r3, [sp, #68]	; 0x44
    85b4:	e58d5024 	str	r5, [sp, #36]	; 0x24
    85b8:	e58d503c 	str	r5, [sp, #60]	; 0x3c
    85bc:	e59d7024 	ldr	r7, [sp, #36]	; 0x24
    85c0:	e3570000 	cmp	r7, #0
    85c4:	ba00000c 	blt	85fc <printf_core+0x64>
    85c8:	e3e03102 	mvn	r3, #-2147483648	; 0x80000000
    85cc:	e0673003 	rsb	r3, r7, r3
    85d0:	e1550003 	cmp	r5, r3
    85d4:	da000005 	ble	85f0 <printf_core+0x58>
    85d8:	eb0007d9 	bl	a544 <__errno_location>
    85dc:	e3a0304b 	mov	r3, #75	; 0x4b
    85e0:	e3e0c000 	mvn	ip, #0
    85e4:	e5803000 	str	r3, [r0]
    85e8:	e58dc024 	str	ip, [sp, #36]	; 0x24
    85ec:	ea000002 	b	85fc <printf_core+0x64>
    85f0:	e59d7024 	ldr	r7, [sp, #36]	; 0x24
    85f4:	e0877005 	add	r7, r7, r5
    85f8:	e58d7024 	str	r7, [sp, #36]	; 0x24
    85fc:	e5d63000 	ldrb	r3, [r6]
    8600:	e3530000 	cmp	r3, #0
    8604:	0a000574 	beq	9bdc <printf_core+0x1644>
    8608:	e1a02006 	mov	r2, r6
    860c:	e5d23000 	ldrb	r3, [r2]
    8610:	e1a05002 	mov	r5, r2
    8614:	e3530025 	cmp	r3, #37	; 0x25
    8618:	13530000 	cmpne	r3, #0
    861c:	e2822001 	add	r2, r2, #1
    8620:	1afffff9 	bne	860c <printf_core+0x74>
    8624:	e58d502c 	str	r5, [sp, #44]	; 0x2c
    8628:	e59d702c 	ldr	r7, [sp, #44]	; 0x2c
    862c:	e5d73000 	ldrb	r3, [r7]
    8630:	e3530025 	cmp	r3, #37	; 0x25
    8634:	0a000007 	beq	8658 <printf_core+0xc0>
    8638:	e35a0000 	cmp	sl, #0
    863c:	e0665005 	rsb	r5, r6, r5
    8640:	0a00000d 	beq	867c <printf_core+0xe4>
    8644:	e1a00006 	mov	r0, r6
    8648:	e1a01005 	mov	r1, r5
    864c:	e1a0200a 	mov	r2, sl
    8650:	eb0005ee 	bl	9e10 <__fwritex>
    8654:	ea000008 	b	867c <printf_core+0xe4>
    8658:	e59dc02c 	ldr	ip, [sp, #44]	; 0x2c
    865c:	e5dc3001 	ldrb	r3, [ip, #1]
    8660:	e3530025 	cmp	r3, #37	; 0x25
    8664:	1afffff3 	bne	8638 <printf_core+0xa0>
    8668:	e59dc02c 	ldr	ip, [sp, #44]	; 0x2c
    866c:	e2855001 	add	r5, r5, #1
    8670:	e28cc002 	add	ip, ip, #2
    8674:	e58dc02c 	str	ip, [sp, #44]	; 0x2c
    8678:	eaffffea 	b	8628 <printf_core+0x90>
    867c:	e3550000 	cmp	r5, #0
    8680:	0a000001 	beq	868c <printf_core+0xf4>
    8684:	e59d602c 	ldr	r6, [sp, #44]	; 0x2c
    8688:	eaffffcb 	b	85bc <printf_core+0x24>
    868c:	e59d702c 	ldr	r7, [sp, #44]	; 0x2c
    8690:	e5d73001 	ldrb	r3, [r7, #1]
    8694:	e2433030 	sub	r3, r3, #48	; 0x30
    8698:	e3530009 	cmp	r3, #9
    869c:	8a000005 	bhi	86b8 <printf_core+0x120>
    86a0:	e5d72002 	ldrb	r2, [r7, #2]
    86a4:	e3520024 	cmp	r2, #36	; 0x24
    86a8:	03a0c001 	moveq	ip, #1
    86ac:	02870003 	addeq	r0, r7, #3
    86b0:	058dc03c 	streq	ip, [sp, #60]	; 0x3c
    86b4:	0a000002 	beq	86c4 <printf_core+0x12c>
    86b8:	e59d702c 	ldr	r7, [sp, #44]	; 0x2c
    86bc:	e3e03000 	mvn	r3, #0
    86c0:	e2870001 	add	r0, r7, #1
    86c4:	e59f7f80 	ldr	r7, [pc, #3968]	; 964c <printf_core+0x10b4>
    86c8:	e3a0b000 	mov	fp, #0
    86cc:	e3a08001 	mov	r8, #1
    86d0:	e1a02000 	mov	r2, r0
    86d4:	e4d0c001 	ldrb	ip, [r0], #1
    86d8:	e24c1020 	sub	r1, ip, #32
    86dc:	e351001f 	cmp	r1, #31
    86e0:	9a000006 	bls	8700 <printf_core+0x168>
    86e4:	e35c002a 	cmp	ip, #42	; 0x2a
    86e8:	0a000009 	beq	8714 <printf_core+0x17c>
    86ec:	e3a0c000 	mov	ip, #0
    86f0:	e58dc018 	str	ip, [sp, #24]
    86f4:	e1a00002 	mov	r0, r2
    86f8:	e3a0c00a 	mov	ip, #10
    86fc:	ea00002d 	b	87b8 <printf_core+0x220>
    8700:	e1a04137 	lsr	r4, r7, r1
    8704:	e3140001 	tst	r4, #1
    8708:	0afffff5 	beq	86e4 <printf_core+0x14c>
    870c:	e18bb118 	orr	fp, fp, r8, lsl r1
    8710:	eaffffee 	b	86d0 <printf_core+0x138>
    8714:	e5d21001 	ldrb	r1, [r2, #1]
    8718:	e2410030 	sub	r0, r1, #48	; 0x30
    871c:	e3500009 	cmp	r0, #9
    8720:	8a000010 	bhi	8768 <printf_core+0x1d0>
    8724:	e5d20002 	ldrb	r0, [r2, #2]
    8728:	e3500024 	cmp	r0, #36	; 0x24
    872c:	1a00000d 	bne	8768 <printf_core+0x1d0>
    8730:	e59d72d0 	ldr	r7, [sp, #720]	; 0x2d0
    8734:	e24111c3 	sub	r1, r1, #-1073741776	; 0xc0000030
    8738:	e3a0000a 	mov	r0, #10
    873c:	e7870101 	str	r0, [r7, r1, lsl #2]
    8740:	e5d21001 	ldrb	r1, [r2, #1]
    8744:	e59dc044 	ldr	ip, [sp, #68]	; 0x44
    8748:	e2811202 	add	r1, r1, #536870912	; 0x20000000
    874c:	e2411030 	sub	r1, r1, #48	; 0x30
    8750:	e79c1181 	ldr	r1, [ip, r1, lsl #3]
    8754:	e3a07001 	mov	r7, #1
    8758:	e58d1018 	str	r1, [sp, #24]
    875c:	e2822003 	add	r2, r2, #3
    8760:	e58d703c 	str	r7, [sp, #60]	; 0x3c
    8764:	ea00000d 	b	87a0 <printf_core+0x208>
    8768:	e59dc03c 	ldr	ip, [sp, #60]	; 0x3c
    876c:	e35c0000 	cmp	ip, #0
    8770:	0a000001 	beq	877c <printf_core+0x1e4>
    8774:	e3e00000 	mvn	r0, #0
    8778:	ea00055c 	b	9cf0 <printf_core+0x1758>
    877c:	e35a0000 	cmp	sl, #0
    8780:	159d7038 	ldrne	r7, [sp, #56]	; 0x38
    8784:	058da018 	streq	sl, [sp, #24]
    8788:	15971000 	ldrne	r1, [r7]
    878c:	e2822001 	add	r2, r2, #1
    8790:	12810004 	addne	r0, r1, #4
    8794:	15911000 	ldrne	r1, [r1]
    8798:	15870000 	strne	r0, [r7]
    879c:	158d1018 	strne	r1, [sp, #24]
    87a0:	e59dc018 	ldr	ip, [sp, #24]
    87a4:	e35c0000 	cmp	ip, #0
    87a8:	b26cc000 	rsblt	ip, ip, #0
    87ac:	b38bba02 	orrlt	fp, fp, #8192	; 0x2000
    87b0:	b58dc018 	strlt	ip, [sp, #24]
    87b4:	ea00000b 	b	87e8 <printf_core+0x250>
    87b8:	e5d01000 	ldrb	r1, [r0]
    87bc:	e1a02000 	mov	r2, r0
    87c0:	e2411030 	sub	r1, r1, #48	; 0x30
    87c4:	e3510009 	cmp	r1, #9
    87c8:	e2800001 	add	r0, r0, #1
    87cc:	959d7018 	ldrls	r7, [sp, #24]
    87d0:	9027179c 	mlals	r7, ip, r7, r1
    87d4:	958d7018 	strls	r7, [sp, #24]
    87d8:	9afffff6 	bls	87b8 <printf_core+0x220>
    87dc:	e59dc018 	ldr	ip, [sp, #24]
    87e0:	e35c0000 	cmp	ip, #0
    87e4:	baffffe2 	blt	8774 <printf_core+0x1dc>
    87e8:	e5d21000 	ldrb	r1, [r2]
    87ec:	e351002e 	cmp	r1, #46	; 0x2e
    87f0:	13e04000 	mvnne	r4, #0
    87f4:	1a000029 	bne	88a0 <printf_core+0x308>
    87f8:	e5d21001 	ldrb	r1, [r2, #1]
    87fc:	e351002a 	cmp	r1, #42	; 0x2a
    8800:	12821001 	addne	r1, r2, #1
    8804:	13a04000 	movne	r4, #0
    8808:	13a0c00a 	movne	ip, #10
    880c:	1a00001d 	bne	8888 <printf_core+0x2f0>
    8810:	e5d21002 	ldrb	r1, [r2, #2]
    8814:	e2410030 	sub	r0, r1, #48	; 0x30
    8818:	e3500009 	cmp	r0, #9
    881c:	8a00000d 	bhi	8858 <printf_core+0x2c0>
    8820:	e5d20003 	ldrb	r0, [r2, #3]
    8824:	e3500024 	cmp	r0, #36	; 0x24
    8828:	1a00000a 	bne	8858 <printf_core+0x2c0>
    882c:	e59d72d0 	ldr	r7, [sp, #720]	; 0x2d0
    8830:	e24111c3 	sub	r1, r1, #-1073741776	; 0xc0000030
    8834:	e3a0000a 	mov	r0, #10
    8838:	e7870101 	str	r0, [r7, r1, lsl #2]
    883c:	e5d21002 	ldrb	r1, [r2, #2]
    8840:	e59dc044 	ldr	ip, [sp, #68]	; 0x44
    8844:	e2811202 	add	r1, r1, #536870912	; 0x20000000
    8848:	e2411030 	sub	r1, r1, #48	; 0x30
    884c:	e79c4181 	ldr	r4, [ip, r1, lsl #3]
    8850:	e2822004 	add	r2, r2, #4
    8854:	ea000011 	b	88a0 <printf_core+0x308>
    8858:	e59d703c 	ldr	r7, [sp, #60]	; 0x3c
    885c:	e3570000 	cmp	r7, #0
    8860:	1affffc3 	bne	8774 <printf_core+0x1dc>
    8864:	e35a0000 	cmp	sl, #0
    8868:	159dc038 	ldrne	ip, [sp, #56]	; 0x38
    886c:	01a0400a 	moveq	r4, sl
    8870:	159c1000 	ldrne	r1, [ip]
    8874:	e2822002 	add	r2, r2, #2
    8878:	12810004 	addne	r0, r1, #4
    887c:	158c0000 	strne	r0, [ip]
    8880:	15914000 	ldrne	r4, [r1]
    8884:	ea000005 	b	88a0 <printf_core+0x308>
    8888:	e1a02001 	mov	r2, r1
    888c:	e4d10001 	ldrb	r0, [r1], #1
    8890:	e2400030 	sub	r0, r0, #48	; 0x30
    8894:	e3500009 	cmp	r0, #9
    8898:	9024049c 	mlals	r4, ip, r4, r0
    889c:	9afffff9 	bls	8888 <printf_core+0x2f0>
    88a0:	e59f0da8 	ldr	r0, [pc, #3496]	; 9650 <printf_core+0x10b8>
    88a4:	e3a07000 	mov	r7, #0
    88a8:	e3a0c03a 	mov	ip, #58	; 0x3a
    88ac:	e1a08002 	mov	r8, r2
    88b0:	e4d21001 	ldrb	r1, [r2], #1
    88b4:	e2419041 	sub	r9, r1, #65	; 0x41
    88b8:	e3590039 	cmp	r9, #57	; 0x39
    88bc:	8affffac 	bhi	8774 <printf_core+0x1dc>
    88c0:	e029079c 	mla	r9, ip, r7, r0
    88c4:	e0891001 	add	r1, r9, r1
    88c8:	e5511041 	ldrb	r1, [r1, #-65]	; 0x41
    88cc:	e58d202c 	str	r2, [sp, #44]	; 0x2c
    88d0:	e2419001 	sub	r9, r1, #1
    88d4:	e3590007 	cmp	r9, #7
    88d8:	91a07001 	movls	r7, r1
    88dc:	9afffff2 	bls	88ac <printf_core+0x314>
    88e0:	e3510000 	cmp	r1, #0
    88e4:	0affffa2 	beq	8774 <printf_core+0x1dc>
    88e8:	e3510013 	cmp	r1, #19
    88ec:	1a000002 	bne	88fc <printf_core+0x364>
    88f0:	e3530000 	cmp	r3, #0
    88f4:	ba000013 	blt	8948 <printf_core+0x3b0>
    88f8:	eaffff9d 	b	8774 <printf_core+0x1dc>
    88fc:	e3530000 	cmp	r3, #0
    8900:	ba000008 	blt	8928 <printf_core+0x390>
    8904:	e59dc2d0 	ldr	ip, [sp, #720]	; 0x2d0
    8908:	e28d0faa 	add	r0, sp, #680	; 0x2a8
    890c:	e78c1103 	str	r1, [ip, r3, lsl #2]
    8910:	e59dc044 	ldr	ip, [sp, #68]	; 0x44
    8914:	e59f1d38 	ldr	r1, [pc, #3384]	; 9654 <printf_core+0x10bc>
    8918:	e1a03183 	lsl	r3, r3, #3
    891c:	e18320dc 	ldrd	r2, [r3, ip]
    8920:	e18020f1 	strd	r2, [r0, r1]
    8924:	ea000007 	b	8948 <printf_core+0x3b0>
    8928:	e35a0000 	cmp	sl, #0
    892c:	1a000001 	bne	8938 <printf_core+0x3a0>
    8930:	e3a00000 	mov	r0, #0
    8934:	ea0004ed 	b	9cf0 <printf_core+0x1758>
    8938:	e28d0050 	add	r0, sp, #80	; 0x50
    893c:	e59d2038 	ldr	r2, [sp, #56]	; 0x38
    8940:	ebfffeb2 	bl	8410 <pop_arg>
    8944:	ea000001 	b	8950 <printf_core+0x3b8>
    8948:	e35a0000 	cmp	sl, #0
    894c:	0affff4c 	beq	8684 <printf_core+0xec>
    8950:	e5d88000 	ldrb	r8, [r8]
    8954:	e3570000 	cmp	r7, #0
    8958:	e58d801c 	str	r8, [sp, #28]
    895c:	0a000004 	beq	8974 <printf_core+0x3dc>
    8960:	e208300f 	and	r3, r8, #15
    8964:	e3530003 	cmp	r3, #3
    8968:	01a0c008 	moveq	ip, r8
    896c:	03ccc020 	biceq	ip, ip, #32
    8970:	058dc01c 	streq	ip, [sp, #28]
    8974:	e59dc01c 	ldr	ip, [sp, #28]
    8978:	e31b0a02 	tst	fp, #8192	; 0x2000
    897c:	e24c3041 	sub	r3, ip, #65	; 0x41
    8980:	13cbb801 	bicne	fp, fp, #65536	; 0x10000
    8984:	e3530037 	cmp	r3, #55	; 0x37
    8988:	979ff103 	ldrls	pc, [pc, r3, lsl #2]
    898c:	ea000461 	b	9b18 <printf_core+0x1580>
    8990:	00008da8 	andeq	r8, r0, r8, lsr #27
    8994:	00009b18 	andeq	r9, r0, r8, lsl fp
    8998:	00008d4c 	andeq	r8, r0, ip, asr #26
    899c:	00009b18 	andeq	r9, r0, r8, lsl fp
    89a0:	00008da8 	andeq	r8, r0, r8, lsr #27
    89a4:	00008da8 	andeq	r8, r0, r8, lsr #27
    89a8:	00008da8 	andeq	r8, r0, r8, lsr #27
    89ac:	00009b18 	andeq	r9, r0, r8, lsl fp
    89b0:	00009b18 	andeq	r9, r0, r8, lsl fp
    89b4:	00009b18 	andeq	r9, r0, r8, lsl fp
    89b8:	00009b18 	andeq	r9, r0, r8, lsl fp
    89bc:	00009b18 	andeq	r9, r0, r8, lsl fp
    89c0:	00009b18 	andeq	r9, r0, r8, lsl fp
    89c4:	00009b18 	andeq	r9, r0, r8, lsl fp
    89c8:	00009b18 	andeq	r9, r0, r8, lsl fp
    89cc:	00009b18 	andeq	r9, r0, r8, lsl fp
    89d0:	00009b18 	andeq	r9, r0, r8, lsl fp
    89d4:	00009b18 	andeq	r9, r0, r8, lsl fp
    89d8:	00008d68 	andeq	r8, r0, r8, ror #26
    89dc:	00009b18 	andeq	r9, r0, r8, lsl fp
    89e0:	00009b18 	andeq	r9, r0, r8, lsl fp
    89e4:	00009b18 	andeq	r9, r0, r8, lsl fp
    89e8:	00009b18 	andeq	r9, r0, r8, lsl fp
    89ec:	00008b0c 	andeq	r8, r0, ip, lsl #22
    89f0:	00009b18 	andeq	r9, r0, r8, lsl fp
    89f4:	00009b18 	andeq	r9, r0, r8, lsl fp
    89f8:	00009b18 	andeq	r9, r0, r8, lsl fp
    89fc:	00009b18 	andeq	r9, r0, r8, lsl fp
    8a00:	00009b18 	andeq	r9, r0, r8, lsl fp
    8a04:	00009b18 	andeq	r9, r0, r8, lsl fp
    8a08:	00009b18 	andeq	r9, r0, r8, lsl fp
    8a0c:	00009b18 	andeq	r9, r0, r8, lsl fp
    8a10:	00008da8 	andeq	r8, r0, r8, lsr #27
    8a14:	00009b18 	andeq	r9, r0, r8, lsl fp
    8a18:	00008cd8 	ldrdeq	r8, [r0], -r8	; <UNPREDICTABLE>
    8a1c:	00008c08 	andeq	r8, r0, r8, lsl #24
    8a20:	00008da8 	andeq	r8, r0, r8, lsr #27
    8a24:	00008da8 	andeq	r8, r0, r8, lsr #27
    8a28:	00008da8 	andeq	r8, r0, r8, lsr #27
    8a2c:	00009b18 	andeq	r9, r0, r8, lsl fp
    8a30:	00008c08 	andeq	r8, r0, r8, lsl #24
    8a34:	00009b18 	andeq	r9, r0, r8, lsl fp
    8a38:	00009b18 	andeq	r9, r0, r8, lsl fp
    8a3c:	00009b18 	andeq	r9, r0, r8, lsl fp
    8a40:	00008cfc 	strdeq	r8, [r0], -ip
    8a44:	00008a70 	andeq	r8, r0, r0, ror sl
    8a48:	00008b94 	muleq	r0, r4, fp
    8a4c:	00008af8 	strdeq	r8, [r0], -r8	; <UNPREDICTABLE>
    8a50:	00009b18 	andeq	r9, r0, r8, lsl fp
    8a54:	00009b18 	andeq	r9, r0, r8, lsl fp
    8a58:	00008d10 	andeq	r8, r0, r0, lsl sp
    8a5c:	00009b18 	andeq	r9, r0, r8, lsl fp
    8a60:	00008c5c 	andeq	r8, r0, ip, asr ip
    8a64:	00009b18 	andeq	r9, r0, r8, lsl fp
    8a68:	00009b18 	andeq	r9, r0, r8, lsl fp
    8a6c:	00008b0c 	andeq	r8, r0, ip, lsl #22
    8a70:	e3570007 	cmp	r7, #7
    8a74:	979ff107 	ldrls	pc, [pc, r7, lsl #2]
    8a78:	eaffff01 	b	8684 <printf_core+0xec>
    8a7c:	00008acc 	andeq	r8, r0, ip, asr #21
    8a80:	00008a9c 	muleq	r0, ip, sl
    8a84:	00008adc 	ldrdeq	r8, [r0], -ip
    8a88:	00008aac 	andeq	r8, r0, ip, lsr #21
    8a8c:	00008abc 			; <UNDEFINED> instruction: 0x00008abc
    8a90:	00008684 	andeq	r8, r0, r4, lsl #13
    8a94:	00008acc 	andeq	r8, r0, ip, asr #21
    8a98:	00008adc 	ldrdeq	r8, [r0], -ip
    8a9c:	e59d3050 	ldr	r3, [sp, #80]	; 0x50
    8aa0:	e59d7024 	ldr	r7, [sp, #36]	; 0x24
    8aa4:	e5837000 	str	r7, [r3]
    8aa8:	eafffef5 	b	8684 <printf_core+0xec>
    8aac:	e59d3050 	ldr	r3, [sp, #80]	; 0x50
    8ab0:	e59d7024 	ldr	r7, [sp, #36]	; 0x24
    8ab4:	e1c370b0 	strh	r7, [r3]
    8ab8:	eafffef1 	b	8684 <printf_core+0xec>
    8abc:	e59d3050 	ldr	r3, [sp, #80]	; 0x50
    8ac0:	e59dc024 	ldr	ip, [sp, #36]	; 0x24
    8ac4:	e5c3c000 	strb	ip, [r3]
    8ac8:	eafffeed 	b	8684 <printf_core+0xec>
    8acc:	e59d3050 	ldr	r3, [sp, #80]	; 0x50
    8ad0:	e59d6024 	ldr	r6, [sp, #36]	; 0x24
    8ad4:	e5836000 	str	r6, [r3]
    8ad8:	eafffee9 	b	8684 <printf_core+0xec>
    8adc:	e59d6024 	ldr	r6, [sp, #36]	; 0x24
    8ae0:	e59d1050 	ldr	r1, [sp, #80]	; 0x50
    8ae4:	e1a07fc6 	asr	r7, r6, #31
    8ae8:	e1a02006 	mov	r2, r6
    8aec:	e1a03007 	mov	r3, r7
    8af0:	e1c120f0 	strd	r2, [r1]
    8af4:	eafffee2 	b	8684 <printf_core+0xec>
    8af8:	e3a07078 	mov	r7, #120	; 0x78
    8afc:	e3540008 	cmp	r4, #8
    8b00:	33a04008 	movcc	r4, #8
    8b04:	e38bb008 	orr	fp, fp, #8
    8b08:	e58d701c 	str	r7, [sp, #28]
    8b0c:	e59f3b40 	ldr	r3, [pc, #2880]	; 9654 <printf_core+0x10bc>
    8b10:	e59d601c 	ldr	r6, [sp, #28]
    8b14:	e28dcfaa 	add	ip, sp, #680	; 0x2a8
    8b18:	e59f5b30 	ldr	r5, [pc, #2864]	; 9650 <printf_core+0x10b8>
    8b1c:	e18320dc 	ldrd	r2, [r3, ip]
    8b20:	e206e020 	and	lr, r6, #32
    8b24:	e28dc0b0 	add	ip, sp, #176	; 0xb0
    8b28:	e3a0800f 	mov	r8, #15
    8b2c:	e1927003 	orrs	r7, r2, r3
    8b30:	e1a0600c 	mov	r6, ip
    8b34:	0a00000a 	beq	8b64 <printf_core+0x5cc>
    8b38:	e0020008 	and	r0, r2, r8
    8b3c:	e0850000 	add	r0, r5, r0
    8b40:	e5d011d0 	ldrb	r1, [r0, #464]	; 0x1d0
    8b44:	e1a00223 	lsr	r0, r3, #4
    8b48:	e181100e 	orr	r1, r1, lr
    8b4c:	e56c1001 	strb	r1, [ip, #-1]!
    8b50:	e1a01222 	lsr	r1, r2, #4
    8b54:	e1811e03 	orr	r1, r1, r3, lsl #28
    8b58:	e1a02001 	mov	r2, r1
    8b5c:	e1a03000 	mov	r3, r0
    8b60:	eafffff1 	b	8b2c <printf_core+0x594>
    8b64:	e59f3ae8 	ldr	r3, [pc, #2792]	; 9654 <printf_core+0x10bc>
    8b68:	e28dcfaa 	add	ip, sp, #680	; 0x2a8
    8b6c:	e18320dc 	ldrd	r2, [r3, ip]
    8b70:	e1920003 	orrs	r0, r2, r3
    8b74:	e59f8b2c 	ldr	r8, [pc, #2860]	; 96a8 <printf_core+0x1110>
    8b78:	03a07000 	moveq	r7, #0
    8b7c:	0a000041 	beq	8c88 <printf_core+0x6f0>
    8b80:	e21b7008 	ands	r7, fp, #8
    8b84:	159d701c 	ldrne	r7, [sp, #28]
    8b88:	10888247 	addne	r8, r8, r7, asr #4
    8b8c:	13a07002 	movne	r7, #2
    8b90:	ea00003c 	b	8c88 <printf_core+0x6f0>
    8b94:	e59f3ab8 	ldr	r3, [pc, #2744]	; 9654 <printf_core+0x10bc>
    8b98:	e28dcfaa 	add	ip, sp, #680	; 0x2a8
    8b9c:	e28d10b0 	add	r1, sp, #176	; 0xb0
    8ba0:	e18320dc 	ldrd	r2, [r3, ip]
    8ba4:	e1920003 	orrs	r0, r2, r3
    8ba8:	e1a06001 	mov	r6, r1
    8bac:	0a000008 	beq	8bd4 <printf_core+0x63c>
    8bb0:	e2020007 	and	r0, r2, #7
    8bb4:	e2800030 	add	r0, r0, #48	; 0x30
    8bb8:	e5610001 	strb	r0, [r1, #-1]!
    8bbc:	e1a001a2 	lsr	r0, r2, #3
    8bc0:	e1800e83 	orr	r0, r0, r3, lsl #29
    8bc4:	e1a0c1a3 	lsr	ip, r3, #3
    8bc8:	e1a02000 	mov	r2, r0
    8bcc:	e1a0300c 	mov	r3, ip
    8bd0:	eafffff3 	b	8ba4 <printf_core+0x60c>
    8bd4:	e21b7008 	ands	r7, fp, #8
    8bd8:	059f8ac8 	ldreq	r8, [pc, #2760]	; 96a8 <printf_core+0x1110>
    8bdc:	0a000029 	beq	8c88 <printf_core+0x6f0>
    8be0:	e59f3a6c 	ldr	r3, [pc, #2668]	; 9654 <printf_core+0x10bc>
    8be4:	e28d1faa 	add	r1, sp, #680	; 0x2a8
    8be8:	e18320d1 	ldrd	r2, [r3, r1]
    8bec:	e1927003 	orrs	r7, r2, r3
    8bf0:	e59f3ab0 	ldr	r3, [pc, #2736]	; 96a8 <printf_core+0x1110>
    8bf4:	03a07000 	moveq	r7, #0
    8bf8:	13a07001 	movne	r7, #1
    8bfc:	e2838005 	add	r8, r3, #5
    8c00:	01a08003 	moveq	r8, r3
    8c04:	ea00001f 	b	8c88 <printf_core+0x6f0>
    8c08:	e59f1a44 	ldr	r1, [pc, #2628]	; 9654 <printf_core+0x10bc>
    8c0c:	e28dcfaa 	add	ip, sp, #680	; 0x2a8
    8c10:	e18c20d1 	ldrd	r2, [ip, r1]
    8c14:	e3520000 	cmp	r2, #0
    8c18:	e2d30000 	sbcs	r0, r3, #0
    8c1c:	aa000004 	bge	8c34 <printf_core+0x69c>
    8c20:	e2722000 	rsbs	r2, r2, #0
    8c24:	e2e33000 	rsc	r3, r3, #0
    8c28:	e18c20f1 	strd	r2, [ip, r1]
    8c2c:	e3a07001 	mov	r7, #1
    8c30:	ea00000a 	b	8c60 <printf_core+0x6c8>
    8c34:	e31b0b02 	tst	fp, #2048	; 0x800
    8c38:	1a00000a 	bne	8c68 <printf_core+0x6d0>
    8c3c:	e20b3001 	and	r3, fp, #1
    8c40:	e3530000 	cmp	r3, #0
    8c44:	e59f3a5c 	ldr	r3, [pc, #2652]	; 96a8 <printf_core+0x1110>
    8c48:	03a07000 	moveq	r7, #0
    8c4c:	13a07001 	movne	r7, #1
    8c50:	e2838002 	add	r8, r3, #2
    8c54:	01a08003 	moveq	r8, r3
    8c58:	ea000004 	b	8c70 <printf_core+0x6d8>
    8c5c:	e3a07000 	mov	r7, #0
    8c60:	e59f8a40 	ldr	r8, [pc, #2624]	; 96a8 <printf_core+0x1110>
    8c64:	ea000001 	b	8c70 <printf_core+0x6d8>
    8c68:	e59f89e8 	ldr	r8, [pc, #2536]	; 9658 <printf_core+0x10c0>
    8c6c:	e3a07001 	mov	r7, #1
    8c70:	e59f39dc 	ldr	r3, [pc, #2524]	; 9654 <printf_core+0x10bc>
    8c74:	e28d2faa 	add	r2, sp, #680	; 0x2a8
    8c78:	e18200d3 	ldrd	r0, [r2, r3]
    8c7c:	e28d20b0 	add	r2, sp, #176	; 0xb0
    8c80:	ebfffdbc 	bl	8378 <fmt_u>
    8c84:	e1a06000 	mov	r6, r0
    8c88:	e59f39c4 	ldr	r3, [pc, #2500]	; 9654 <printf_core+0x10bc>
    8c8c:	e3540000 	cmp	r4, #0
    8c90:	e28dcfaa 	add	ip, sp, #680	; 0x2a8
    8c94:	a3cbb801 	bicge	fp, fp, #65536	; 0x10000
    8c98:	e18320dc 	ldrd	r2, [r3, ip]
    8c9c:	e1920003 	orrs	r0, r2, r3
    8ca0:	e28d10b0 	add	r1, sp, #176	; 0xb0
    8ca4:	1a000003 	bne	8cb8 <printf_core+0x720>
    8ca8:	e3540000 	cmp	r4, #0
    8cac:	01a06001 	moveq	r6, r1
    8cb0:	01a00006 	moveq	r0, r6
    8cb4:	0a00039a 	beq	9b24 <printf_core+0x158c>
    8cb8:	e0661001 	rsb	r1, r6, r1
    8cbc:	e1822003 	orr	r2, r2, r3
    8cc0:	e3520000 	cmp	r2, #0
    8cc4:	11a02001 	movne	r2, r1
    8cc8:	02812001 	addeq	r2, r1, #1
    8ccc:	e1540002 	cmp	r4, r2
    8cd0:	b1a04002 	movlt	r4, r2
    8cd4:	ea000391 	b	9b20 <printf_core+0x1588>
    8cd8:	e59d3050 	ldr	r3, [sp, #80]	; 0x50
    8cdc:	e3cbb801 	bic	fp, fp, #65536	; 0x10000
    8ce0:	e5cd30af 	strb	r3, [sp, #175]	; 0xaf
    8ce4:	e3a07000 	mov	r7, #0
    8ce8:	e59f89b8 	ldr	r8, [pc, #2488]	; 96a8 <printf_core+0x1110>
    8cec:	e3a04001 	mov	r4, #1
    8cf0:	e28d00b0 	add	r0, sp, #176	; 0xb0
    8cf4:	e28d60af 	add	r6, sp, #175	; 0xaf
    8cf8:	ea000389 	b	9b24 <printf_core+0x158c>
    8cfc:	eb000610 	bl	a544 <__errno_location>
    8d00:	e5900000 	ldr	r0, [r0]
    8d04:	eb000611 	bl	a550 <strerror>
    8d08:	e1a06000 	mov	r6, r0
    8d0c:	ea000003 	b	8d20 <printf_core+0x788>
    8d10:	e59d6050 	ldr	r6, [sp, #80]	; 0x50
    8d14:	e59f3940 	ldr	r3, [pc, #2368]	; 965c <printf_core+0x10c4>
    8d18:	e3560000 	cmp	r6, #0
    8d1c:	01a06003 	moveq	r6, r3
    8d20:	e1a02004 	mov	r2, r4
    8d24:	e1a00006 	mov	r0, r6
    8d28:	e3a01000 	mov	r1, #0
    8d2c:	eb0005d2 	bl	a47c <memchr>
    8d30:	e3500000 	cmp	r0, #0
    8d34:	00860004 	addeq	r0, r6, r4
    8d38:	10664000 	rsbne	r4, r6, r0
    8d3c:	e3cbb801 	bic	fp, fp, #65536	; 0x10000
    8d40:	e3a07000 	mov	r7, #0
    8d44:	e59f895c 	ldr	r8, [pc, #2396]	; 96a8 <printf_core+0x1110>
    8d48:	ea000375 	b	9b24 <printf_core+0x158c>
    8d4c:	e59d3050 	ldr	r3, [sp, #80]	; 0x50
    8d50:	e3e04000 	mvn	r4, #0
    8d54:	e58d305c 	str	r3, [sp, #92]	; 0x5c
    8d58:	e3a03000 	mov	r3, #0
    8d5c:	e58d3060 	str	r3, [sp, #96]	; 0x60
    8d60:	e28d305c 	add	r3, sp, #92	; 0x5c
    8d64:	e58d3050 	str	r3, [sp, #80]	; 0x50
    8d68:	e59d6050 	ldr	r6, [sp, #80]	; 0x50
    8d6c:	e2466004 	sub	r6, r6, #4
    8d70:	e1550004 	cmp	r5, r4
    8d74:	2a0003b4 	bcs	9c4c <printf_core+0x16b4>
    8d78:	e5b61004 	ldr	r1, [r6, #4]!
    8d7c:	e3510000 	cmp	r1, #0
    8d80:	0a0003b1 	beq	9c4c <printf_core+0x16b4>
    8d84:	e28d0048 	add	r0, sp, #72	; 0x48
    8d88:	eb000637 	bl	a66c <wctomb>
    8d8c:	e3500000 	cmp	r0, #0
    8d90:	bafffe77 	blt	8774 <printf_core+0x1dc>
    8d94:	e0653004 	rsb	r3, r5, r4
    8d98:	e1500003 	cmp	r0, r3
    8d9c:	8a0003aa 	bhi	9c4c <printf_core+0x16b4>
    8da0:	e0855000 	add	r5, r5, r0
    8da4:	eafffff1 	b	8d70 <printf_core+0x7d8>
    8da8:	e59f38a4 	ldr	r3, [pc, #2212]	; 9654 <printf_core+0x10bc>
    8dac:	e28d7faa 	add	r7, sp, #680	; 0x2a8
    8db0:	e18700d3 	ldrd	r0, [r7, r3]
    8db4:	e3a03000 	mov	r3, #0
    8db8:	e1510003 	cmp	r1, r3
    8dbc:	e58d304c 	str	r3, [sp, #76]	; 0x4c
    8dc0:	aa000005 	bge	8ddc <printf_core+0x844>
    8dc4:	e2813102 	add	r3, r1, #-2147483648	; 0x80000000
    8dc8:	e3a0c001 	mov	ip, #1
    8dcc:	e1a01003 	mov	r1, r3
    8dd0:	e58dc020 	str	ip, [sp, #32]
    8dd4:	e59f6884 	ldr	r6, [pc, #2180]	; 9660 <printf_core+0x10c8>
    8dd8:	ea00000e 	b	8e18 <printf_core+0x880>
    8ddc:	e31b0b02 	tst	fp, #2048	; 0x800
    8de0:	1a000009 	bne	8e0c <printf_core+0x874>
    8de4:	e20b3001 	and	r3, fp, #1
    8de8:	e3530000 	cmp	r3, #0
    8dec:	e59f3870 	ldr	r3, [pc, #2160]	; 9664 <printf_core+0x10cc>
    8df0:	03a07000 	moveq	r7, #0
    8df4:	13a07001 	movne	r7, #1
    8df8:	e2832005 	add	r2, r3, #5
    8dfc:	01a02003 	moveq	r2, r3
    8e00:	e58d7020 	str	r7, [sp, #32]
    8e04:	e58d2030 	str	r2, [sp, #48]	; 0x30
    8e08:	ea000003 	b	8e1c <printf_core+0x884>
    8e0c:	e3a0c001 	mov	ip, #1
    8e10:	e59f6850 	ldr	r6, [pc, #2128]	; 9668 <printf_core+0x10d0>
    8e14:	e58dc020 	str	ip, [sp, #32]
    8e18:	e58d6030 	str	r6, [sp, #48]	; 0x30
    8e1c:	e3e06000 	mvn	r6, #0
    8e20:	e3e07102 	mvn	r7, #-2147483648	; 0x80000000
    8e24:	e59f3840 	ldr	r3, [pc, #2112]	; 966c <printf_core+0x10d4>
    8e28:	e0066000 	and	r6, r6, r0
    8e2c:	e0077001 	and	r7, r7, r1
    8e30:	e3e02000 	mvn	r2, #0
    8e34:	e1570003 	cmp	r7, r3
    8e38:	01560002 	cmpeq	r6, r2
    8e3c:	9a000028 	bls	8ee4 <printf_core+0x94c>
    8e40:	e59d701c 	ldr	r7, [sp, #28]
    8e44:	e1a02000 	mov	r2, r0
    8e48:	e3170020 	tst	r7, #32
    8e4c:	e1a03001 	mov	r3, r1
    8e50:	1a00039d 	bne	9ccc <printf_core+0x1734>
    8e54:	eb0009d7 	bl	b5b8 <__aeabi_dcmpeq>
    8e58:	e59dc020 	ldr	ip, [sp, #32]
    8e5c:	e3500000 	cmp	r0, #0
    8e60:	e59f3808 	ldr	r3, [pc, #2056]	; 9670 <printf_core+0x10d8>
    8e64:	e59f4808 	ldr	r4, [pc, #2056]	; 9674 <printf_core+0x10dc>
    8e68:	03a0c000 	moveq	ip, #0
    8e6c:	11a04003 	movne	r4, r3
    8e70:	e58dc020 	str	ip, [sp, #32]
    8e74:	e59d6020 	ldr	r6, [sp, #32]
    8e78:	e3cb3801 	bic	r3, fp, #65536	; 0x10000
    8e7c:	e2865003 	add	r5, r6, #3
    8e80:	e58d3000 	str	r3, [sp]
    8e84:	e1a0000a 	mov	r0, sl
    8e88:	e1a03005 	mov	r3, r5
    8e8c:	e3a01020 	mov	r1, #32
    8e90:	e59d2018 	ldr	r2, [sp, #24]
    8e94:	ebfffda3 	bl	8528 <pad>
    8e98:	e59d1020 	ldr	r1, [sp, #32]
    8e9c:	e1a0200a 	mov	r2, sl
    8ea0:	e59d0030 	ldr	r0, [sp, #48]	; 0x30
    8ea4:	eb0003d9 	bl	9e10 <__fwritex>
    8ea8:	e3a01003 	mov	r1, #3
    8eac:	e1a0200a 	mov	r2, sl
    8eb0:	e1a00004 	mov	r0, r4
    8eb4:	eb0003d5 	bl	9e10 <__fwritex>
    8eb8:	e22b3a02 	eor	r3, fp, #8192	; 0x2000
    8ebc:	e58d3000 	str	r3, [sp]
    8ec0:	e1a0000a 	mov	r0, sl
    8ec4:	e1a03005 	mov	r3, r5
    8ec8:	e3a01020 	mov	r1, #32
    8ecc:	e59d2018 	ldr	r2, [sp, #24]
    8ed0:	ebfffd94 	bl	8528 <pad>
    8ed4:	e59d7018 	ldr	r7, [sp, #24]
    8ed8:	e1550007 	cmp	r5, r7
    8edc:	b1a05007 	movlt	r5, r7
    8ee0:	eafffde7 	b	8684 <printf_core+0xec>
    8ee4:	e28d204c 	add	r2, sp, #76	; 0x4c
    8ee8:	eb0005ae 	bl	a5a8 <frexpl>
    8eec:	e1a02000 	mov	r2, r0
    8ef0:	e1a03001 	mov	r3, r1
    8ef4:	eb000751 	bl	ac40 <__adddf3>
    8ef8:	e3a03000 	mov	r3, #0
    8efc:	e3a02000 	mov	r2, #0
    8f00:	e1a09000 	mov	r9, r0
    8f04:	e1a08001 	mov	r8, r1
    8f08:	eb0009aa 	bl	b5b8 <__aeabi_dcmpeq>
    8f0c:	e3500000 	cmp	r0, #0
    8f10:	059d304c 	ldreq	r3, [sp, #76]	; 0x4c
    8f14:	e59dc01c 	ldr	ip, [sp, #28]
    8f18:	02433001 	subeq	r3, r3, #1
    8f1c:	e38cc020 	orr	ip, ip, #32
    8f20:	058d304c 	streq	r3, [sp, #76]	; 0x4c
    8f24:	e35c0061 	cmp	ip, #97	; 0x61
    8f28:	e58dc040 	str	ip, [sp, #64]	; 0x40
    8f2c:	1a0000bc 	bne	9224 <printf_core+0xc8c>
    8f30:	e59d601c 	ldr	r6, [sp, #28]
    8f34:	e59dc020 	ldr	ip, [sp, #32]
    8f38:	e3160020 	tst	r6, #32
    8f3c:	159d7030 	ldrne	r7, [sp, #48]	; 0x30
    8f40:	e28cc002 	add	ip, ip, #2
    8f44:	12877009 	addne	r7, r7, #9
    8f48:	158d7030 	strne	r7, [sp, #48]	; 0x30
    8f4c:	e354000b 	cmp	r4, #11
    8f50:	e58dc020 	str	ip, [sp, #32]
    8f54:	8a000024 	bhi	8fec <printf_core+0xa54>
    8f58:	e59f7718 	ldr	r7, [pc, #1816]	; 9678 <printf_core+0x10e0>
    8f5c:	e264500c 	rsb	r5, r4, #12
    8f60:	e3a06000 	mov	r6, #0
    8f64:	e2555001 	subs	r5, r5, #1
    8f68:	3a000007 	bcc	8f8c <printf_core+0x9f4>
    8f6c:	e1a00006 	mov	r0, r6
    8f70:	e1a01007 	mov	r1, r7
    8f74:	e3a02000 	mov	r2, #0
    8f78:	e59f36fc 	ldr	r3, [pc, #1788]	; 967c <printf_core+0x10e4>
    8f7c:	eb000833 	bl	b050 <__aeabi_dmul>
    8f80:	e1a06000 	mov	r6, r0
    8f84:	e1a07001 	mov	r7, r1
    8f88:	eafffff5 	b	8f64 <printf_core+0x9cc>
    8f8c:	e59dc030 	ldr	ip, [sp, #48]	; 0x30
    8f90:	e1a00009 	mov	r0, r9
    8f94:	e5dc3000 	ldrb	r3, [ip]
    8f98:	e353002d 	cmp	r3, #45	; 0x2d
    8f9c:	1a000009 	bne	8fc8 <printf_core+0xa30>
    8fa0:	e2881102 	add	r1, r8, #-2147483648	; 0x80000000
    8fa4:	e1a02006 	mov	r2, r6
    8fa8:	e1a03007 	mov	r3, r7
    8fac:	eb000722 	bl	ac3c <__aeabi_dsub>
    8fb0:	e1a02006 	mov	r2, r6
    8fb4:	e1a03007 	mov	r3, r7
    8fb8:	eb000720 	bl	ac40 <__adddf3>
    8fbc:	e1a09000 	mov	r9, r0
    8fc0:	e2818102 	add	r8, r1, #-2147483648	; 0x80000000
    8fc4:	ea000008 	b	8fec <printf_core+0xa54>
    8fc8:	e1a01008 	mov	r1, r8
    8fcc:	e1a02006 	mov	r2, r6
    8fd0:	e1a03007 	mov	r3, r7
    8fd4:	eb000719 	bl	ac40 <__adddf3>
    8fd8:	e1a02006 	mov	r2, r6
    8fdc:	e1a03007 	mov	r3, r7
    8fe0:	eb000715 	bl	ac3c <__aeabi_dsub>
    8fe4:	e1a09000 	mov	r9, r0
    8fe8:	e1a08001 	mov	r8, r1
    8fec:	e59d004c 	ldr	r0, [sp, #76]	; 0x4c
    8ff0:	e28d5070 	add	r5, sp, #112	; 0x70
    8ff4:	e3500000 	cmp	r0, #0
    8ff8:	b2600000 	rsblt	r0, r0, #0
    8ffc:	e1a01fc0 	asr	r1, r0, #31
    9000:	e1a02005 	mov	r2, r5
    9004:	ebfffcdb 	bl	8378 <fmt_u>
    9008:	e1500005 	cmp	r0, r5
    900c:	03a03030 	moveq	r3, #48	; 0x30
    9010:	05cd306f 	strbeq	r3, [sp, #111]	; 0x6f
    9014:	e59d304c 	ldr	r3, [sp, #76]	; 0x4c
    9018:	e59d701c 	ldr	r7, [sp, #28]
    901c:	028d006f 	addeq	r0, sp, #111	; 0x6f
    9020:	e3530000 	cmp	r3, #0
    9024:	e207c020 	and	ip, r7, #32
    9028:	a3a0302b 	movge	r3, #43	; 0x2b
    902c:	b3a0302d 	movlt	r3, #45	; 0x2d
    9030:	e2406002 	sub	r6, r0, #2
    9034:	e5403001 	strb	r3, [r0, #-1]
    9038:	e58d6014 	str	r6, [sp, #20]
    903c:	e287300f 	add	r3, r7, #15
    9040:	e28d6070 	add	r6, sp, #112	; 0x70
    9044:	e58dc01c 	str	ip, [sp, #28]
    9048:	e20bc008 	and	ip, fp, #8
    904c:	e5403002 	strb	r3, [r0, #-2]
    9050:	e1a07006 	mov	r7, r6
    9054:	e58dc028 	str	ip, [sp, #40]	; 0x28
    9058:	e1a01008 	mov	r1, r8
    905c:	e1a00009 	mov	r0, r9
    9060:	eb000972 	bl	b630 <__aeabi_d2iz>
    9064:	e59f15e4 	ldr	r1, [pc, #1508]	; 9650 <printf_core+0x10b8>
    9068:	e59dc01c 	ldr	ip, [sp, #28]
    906c:	e0813000 	add	r3, r1, r0
    9070:	e5d331d0 	ldrb	r3, [r3, #464]	; 0x1d0
    9074:	e2865001 	add	r5, r6, #1
    9078:	e183300c 	orr	r3, r3, ip
    907c:	e5c63000 	strb	r3, [r6]
    9080:	eb0007bb 	bl	af74 <__aeabi_i2d>
    9084:	e1a02000 	mov	r2, r0
    9088:	e1a03001 	mov	r3, r1
    908c:	e1a00009 	mov	r0, r9
    9090:	e1a01008 	mov	r1, r8
    9094:	eb0006e8 	bl	ac3c <__aeabi_dsub>
    9098:	e59f35dc 	ldr	r3, [pc, #1500]	; 967c <printf_core+0x10e4>
    909c:	e3a02000 	mov	r2, #0
    90a0:	eb0007ea 	bl	b050 <__aeabi_dmul>
    90a4:	e0673005 	rsb	r3, r7, r5
    90a8:	e3530001 	cmp	r3, #1
    90ac:	e1a09000 	mov	r9, r0
    90b0:	e1a08001 	mov	r8, r1
    90b4:	1a000012 	bne	9104 <printf_core+0xb6c>
    90b8:	e1a0c003 	mov	ip, r3
    90bc:	e3a02000 	mov	r2, #0
    90c0:	e3a03000 	mov	r3, #0
    90c4:	e58dc00c 	str	ip, [sp, #12]
    90c8:	eb00093a 	bl	b5b8 <__aeabi_dcmpeq>
    90cc:	e59dc00c 	ldr	ip, [sp, #12]
    90d0:	e3500000 	cmp	r0, #0
    90d4:	13a0c000 	movne	ip, #0
    90d8:	e3540000 	cmp	r4, #0
    90dc:	d1a0300c 	movle	r3, ip
    90e0:	c38c3001 	orrgt	r3, ip, #1
    90e4:	e31300ff 	tst	r3, #255	; 0xff
    90e8:	1a000002 	bne	90f8 <printf_core+0xb60>
    90ec:	e59dc028 	ldr	ip, [sp, #40]	; 0x28
    90f0:	e35c0000 	cmp	ip, #0
    90f4:	0a000002 	beq	9104 <printf_core+0xb6c>
    90f8:	e3a0002e 	mov	r0, #46	; 0x2e
    90fc:	e2865002 	add	r5, r6, #2
    9100:	e5c60001 	strb	r0, [r6, #1]
    9104:	e1a00009 	mov	r0, r9
    9108:	e1a01008 	mov	r1, r8
    910c:	e3a02000 	mov	r2, #0
    9110:	e3a03000 	mov	r3, #0
    9114:	eb000927 	bl	b5b8 <__aeabi_dcmpeq>
    9118:	e3500000 	cmp	r0, #0
    911c:	01a06005 	moveq	r6, r5
    9120:	0affffcc 	beq	9058 <printf_core+0xac0>
    9124:	e3540000 	cmp	r4, #0
    9128:	0a000007 	beq	914c <printf_core+0xbb4>
    912c:	e0673005 	rsb	r3, r7, r5
    9130:	e2433001 	sub	r3, r3, #1
    9134:	e1530004 	cmp	r3, r4
    9138:	d59d6014 	ldrle	r6, [sp, #20]
    913c:	d28d3070 	addle	r3, sp, #112	; 0x70
    9140:	d2844002 	addle	r4, r4, #2
    9144:	d0663003 	rsble	r3, r6, r3
    9148:	da000003 	ble	915c <printf_core+0xbc4>
    914c:	e59dc014 	ldr	ip, [sp, #20]
    9150:	e28d3070 	add	r3, sp, #112	; 0x70
    9154:	e0674005 	rsb	r4, r7, r5
    9158:	e06c3003 	rsb	r3, ip, r3
    915c:	e59dc020 	ldr	ip, [sp, #32]
    9160:	e0844003 	add	r4, r4, r3
    9164:	e08c6004 	add	r6, ip, r4
    9168:	e1a03006 	mov	r3, r6
    916c:	e1a0000a 	mov	r0, sl
    9170:	e3a01020 	mov	r1, #32
    9174:	e59d2018 	ldr	r2, [sp, #24]
    9178:	e58db000 	str	fp, [sp]
    917c:	ebfffce9 	bl	8528 <pad>
    9180:	e59d1020 	ldr	r1, [sp, #32]
    9184:	e1a0200a 	mov	r2, sl
    9188:	e59d0030 	ldr	r0, [sp, #48]	; 0x30
    918c:	eb00031f 	bl	9e10 <__fwritex>
    9190:	e22b3801 	eor	r3, fp, #65536	; 0x10000
    9194:	e28d8070 	add	r8, sp, #112	; 0x70
    9198:	e58d3000 	str	r3, [sp]
    919c:	e1a0000a 	mov	r0, sl
    91a0:	e1a03006 	mov	r3, r6
    91a4:	e3a01030 	mov	r1, #48	; 0x30
    91a8:	e59d2018 	ldr	r2, [sp, #24]
    91ac:	ebfffcdd 	bl	8528 <pad>
    91b0:	e0671005 	rsb	r1, r7, r5
    91b4:	e1a0200a 	mov	r2, sl
    91b8:	e1a00008 	mov	r0, r8
    91bc:	eb000313 	bl	9e10 <__fwritex>
    91c0:	e59dc014 	ldr	ip, [sp, #20]
    91c4:	e0652007 	rsb	r2, r5, r7
    91c8:	e068300c 	rsb	r3, r8, ip
    91cc:	e0844003 	add	r4, r4, r3
    91d0:	e3a03000 	mov	r3, #0
    91d4:	e58d3000 	str	r3, [sp]
    91d8:	e1a0000a 	mov	r0, sl
    91dc:	e3a01030 	mov	r1, #48	; 0x30
    91e0:	e0842002 	add	r2, r4, r2
    91e4:	ebfffccf 	bl	8528 <pad>
    91e8:	e59d0014 	ldr	r0, [sp, #20]
    91ec:	e1a0200a 	mov	r2, sl
    91f0:	e0601008 	rsb	r1, r0, r8
    91f4:	eb000305 	bl	9e10 <__fwritex>
    91f8:	e22b3a02 	eor	r3, fp, #8192	; 0x2000
    91fc:	e58d3000 	str	r3, [sp]
    9200:	e1a0000a 	mov	r0, sl
    9204:	e3a01020 	mov	r1, #32
    9208:	e59d2018 	ldr	r2, [sp, #24]
    920c:	e1a03006 	mov	r3, r6
    9210:	ebfffcc4 	bl	8528 <pad>
    9214:	e59d5018 	ldr	r5, [sp, #24]
    9218:	e1550006 	cmp	r5, r6
    921c:	b1a05006 	movlt	r5, r6
    9220:	eafffd17 	b	8684 <printf_core+0xec>
    9224:	e3540000 	cmp	r4, #0
    9228:	e1a00009 	mov	r0, r9
    922c:	e1a01008 	mov	r1, r8
    9230:	e3a02000 	mov	r2, #0
    9234:	e3a03000 	mov	r3, #0
    9238:	b3a04006 	movlt	r4, #6
    923c:	eb0008dd 	bl	b5b8 <__aeabi_dcmpeq>
    9240:	e3500000 	cmp	r0, #0
    9244:	1a000009 	bne	9270 <printf_core+0xcd8>
    9248:	e1a00009 	mov	r0, r9
    924c:	e1a01008 	mov	r1, r8
    9250:	e59f3428 	ldr	r3, [pc, #1064]	; 9680 <printf_core+0x10e8>
    9254:	e3a02000 	mov	r2, #0
    9258:	eb00077c 	bl	b050 <__aeabi_dmul>
    925c:	e59d304c 	ldr	r3, [sp, #76]	; 0x4c
    9260:	e1a09000 	mov	r9, r0
    9264:	e243301c 	sub	r3, r3, #28
    9268:	e1a08001 	mov	r8, r1
    926c:	e58d304c 	str	r3, [sp, #76]	; 0x4c
    9270:	e59d304c 	ldr	r3, [sp, #76]	; 0x4c
    9274:	e3530000 	cmp	r3, #0
    9278:	b28d60b0 	addlt	r6, sp, #176	; 0xb0
    927c:	a28d7e1d 	addge	r7, sp, #464	; 0x1d0
    9280:	b58d6028 	strlt	r6, [sp, #40]	; 0x28
    9284:	a58d7028 	strge	r7, [sp, #40]	; 0x28
    9288:	e59d6028 	ldr	r6, [sp, #40]	; 0x28
    928c:	e1a01008 	mov	r1, r8
    9290:	e1a00009 	mov	r0, r9
    9294:	eb0008fc 	bl	b68c <__aeabi_d2uiz>
    9298:	e1a05006 	mov	r5, r6
    929c:	e4850004 	str	r0, [r5], #4
    92a0:	eb00072a 	bl	af50 <__aeabi_ui2d>
    92a4:	e1a02000 	mov	r2, r0
    92a8:	e1a03001 	mov	r3, r1
    92ac:	e1a00009 	mov	r0, r9
    92b0:	e1a01008 	mov	r1, r8
    92b4:	eb000660 	bl	ac3c <__aeabi_dsub>
    92b8:	e3a02000 	mov	r2, #0
    92bc:	e59f33c0 	ldr	r3, [pc, #960]	; 9684 <printf_core+0x10ec>
    92c0:	eb000762 	bl	b050 <__aeabi_dmul>
    92c4:	e3a02000 	mov	r2, #0
    92c8:	e3a03000 	mov	r3, #0
    92cc:	e1a09000 	mov	r9, r0
    92d0:	e1a08001 	mov	r8, r1
    92d4:	eb0008b7 	bl	b5b8 <__aeabi_dcmpeq>
    92d8:	e3500000 	cmp	r0, #0
    92dc:	e1a06005 	mov	r6, r5
    92e0:	0affffe9 	beq	928c <printf_core+0xcf4>
    92e4:	e59dc028 	ldr	ip, [sp, #40]	; 0x28
    92e8:	e58dc014 	str	ip, [sp, #20]
    92ec:	e59d904c 	ldr	r9, [sp, #76]	; 0x4c
    92f0:	e3590000 	cmp	r9, #0
    92f4:	da00002d 	ble	93b0 <printf_core+0xe18>
    92f8:	e2456004 	sub	r6, r5, #4
    92fc:	e359001d 	cmp	r9, #29
    9300:	a3a0901d 	movge	r9, #29
    9304:	e58d6034 	str	r6, [sp, #52]	; 0x34
    9308:	e1a08006 	mov	r8, r6
    930c:	e3a0c000 	mov	ip, #0
    9310:	e59d7014 	ldr	r7, [sp, #20]
    9314:	e1a03008 	mov	r3, r8
    9318:	e1580007 	cmp	r8, r7
    931c:	3a000014 	bcc	9374 <printf_core+0xddc>
    9320:	e5930000 	ldr	r0, [r3]
    9324:	e1a02009 	mov	r2, r9
    9328:	e3a01000 	mov	r1, #0
    932c:	e58dc00c 	str	ip, [sp, #12]
    9330:	eb000638 	bl	ac18 <__aeabi_llsl>
    9334:	e59dc00c 	ldr	ip, [sp, #12]
    9338:	e59f2348 	ldr	r2, [pc, #840]	; 9688 <printf_core+0x10f0>
    933c:	e090600c 	adds	r6, r0, ip
    9340:	e2a17000 	adc	r7, r1, #0
    9344:	e1a00006 	mov	r0, r6
    9348:	e1a01007 	mov	r1, r7
    934c:	e3a03000 	mov	r3, #0
    9350:	eb0008e2 	bl	b6e0 <__aeabi_uldivmod>
    9354:	e1a00006 	mov	r0, r6
    9358:	e4082004 	str	r2, [r8], #-4
    935c:	e1a01007 	mov	r1, r7
    9360:	e59f2320 	ldr	r2, [pc, #800]	; 9688 <printf_core+0x10f0>
    9364:	e3a03000 	mov	r3, #0
    9368:	eb0008dc 	bl	b6e0 <__aeabi_uldivmod>
    936c:	e1a0c000 	mov	ip, r0
    9370:	eaffffe6 	b	9310 <printf_core+0xd78>
    9374:	e5153004 	ldr	r3, [r5, #-4]
    9378:	e3530000 	cmp	r3, #0
    937c:	1a000002 	bne	938c <printf_core+0xdf4>
    9380:	e59d6034 	ldr	r6, [sp, #52]	; 0x34
    9384:	e1550007 	cmp	r5, r7
    9388:	81a05006 	movhi	r5, r6
    938c:	e35c0000 	cmp	ip, #0
    9390:	159d7014 	ldrne	r7, [sp, #20]
    9394:	1507c004 	strne	ip, [r7, #-4]
    9398:	e59d304c 	ldr	r3, [sp, #76]	; 0x4c
    939c:	12477004 	subne	r7, r7, #4
    93a0:	e0699003 	rsb	r9, r9, r3
    93a4:	158d7014 	strne	r7, [sp, #20]
    93a8:	e58d904c 	str	r9, [sp, #76]	; 0x4c
    93ac:	eaffffce 	b	92ec <printf_core+0xd54>
    93b0:	e2840019 	add	r0, r4, #25
    93b4:	e3a01009 	mov	r1, #9
    93b8:	eb0005c3 	bl	aacc <__aeabi_idiv>
    93bc:	e59f92c4 	ldr	r9, [pc, #708]	; 9688 <printf_core+0x10f0>
    93c0:	e2800001 	add	r0, r0, #1
    93c4:	e1a07100 	lsl	r7, r0, #2
    93c8:	e3a08001 	mov	r8, #1
    93cc:	e59de04c 	ldr	lr, [sp, #76]	; 0x4c
    93d0:	e35e0000 	cmp	lr, #0
    93d4:	aa000024 	bge	946c <printf_core+0xed4>
    93d8:	e26e3000 	rsb	r3, lr, #0
    93dc:	e3530009 	cmp	r3, #9
    93e0:	a3a03009 	movge	r3, #9
    93e4:	e1a01359 	asr	r1, r9, r3
    93e8:	e1a02318 	lsl	r2, r8, r3
    93ec:	e58d1034 	str	r1, [sp, #52]	; 0x34
    93f0:	e59d1014 	ldr	r1, [sp, #20]
    93f4:	e242c001 	sub	ip, r2, #1
    93f8:	e3a02000 	mov	r2, #0
    93fc:	e1510005 	cmp	r1, r5
    9400:	2a000006 	bcs	9420 <printf_core+0xe88>
    9404:	e5916000 	ldr	r6, [r1]
    9408:	e0822336 	add	r2, r2, r6, lsr r3
    940c:	e4812004 	str	r2, [r1], #4
    9410:	e006200c 	and	r2, r6, ip
    9414:	e59d6034 	ldr	r6, [sp, #52]	; 0x34
    9418:	e0020296 	mul	r2, r6, r2
    941c:	eafffff6 	b	93fc <printf_core+0xe64>
    9420:	e59dc014 	ldr	ip, [sp, #20]
    9424:	e59d6028 	ldr	r6, [sp, #40]	; 0x28
    9428:	e59c1000 	ldr	r1, [ip]
    942c:	e08e3003 	add	r3, lr, r3
    9430:	e3510000 	cmp	r1, #0
    9434:	028cc004 	addeq	ip, ip, #4
    9438:	058dc014 	streq	ip, [sp, #20]
    943c:	e59dc040 	ldr	ip, [sp, #64]	; 0x40
    9440:	e3520000 	cmp	r2, #0
    9444:	15852000 	strne	r2, [r5]
    9448:	12855004 	addne	r5, r5, #4
    944c:	e59d2014 	ldr	r2, [sp, #20]
    9450:	e35c0066 	cmp	ip, #102	; 0x66
    9454:	01a02006 	moveq	r2, r6
    9458:	e0621005 	rsb	r1, r2, r5
    945c:	e1500141 	cmp	r0, r1, asr #2
    9460:	b0825007 	addlt	r5, r2, r7
    9464:	e58d304c 	str	r3, [sp, #76]	; 0x4c
    9468:	eaffffd7 	b	93cc <printf_core+0xe34>
    946c:	e59d6014 	ldr	r6, [sp, #20]
    9470:	e1560005 	cmp	r6, r5
    9474:	23a06000 	movcs	r6, #0
    9478:	2a00000b 	bcs	94ac <printf_core+0xf14>
    947c:	e59d7028 	ldr	r7, [sp, #40]	; 0x28
    9480:	e59dc014 	ldr	ip, [sp, #20]
    9484:	e0666007 	rsb	r6, r6, r7
    9488:	e1a06146 	asr	r6, r6, #2
    948c:	e3a0300a 	mov	r3, #10
    9490:	e59c2000 	ldr	r2, [ip]
    9494:	e0866186 	add	r6, r6, r6, lsl #3
    9498:	e1a01003 	mov	r1, r3
    949c:	e1520003 	cmp	r2, r3
    94a0:	20030391 	mulcs	r3, r1, r3
    94a4:	22866001 	addcs	r6, r6, #1
    94a8:	2afffffb 	bcs	949c <printf_core+0xf04>
    94ac:	e59d7040 	ldr	r7, [sp, #64]	; 0x40
    94b0:	e2578066 	subs	r8, r7, #102	; 0x66
    94b4:	13a08001 	movne	r8, #1
    94b8:	e0080896 	mul	r8, r6, r8
    94bc:	e3570067 	cmp	r7, #103	; 0x67
    94c0:	e0688004 	rsb	r8, r8, r4
    94c4:	13a03000 	movne	r3, #0
    94c8:	1a000001 	bne	94d4 <printf_core+0xf3c>
    94cc:	e2943000 	adds	r3, r4, #0
    94d0:	13a03001 	movne	r3, #1
    94d4:	e59dc028 	ldr	ip, [sp, #40]	; 0x28
    94d8:	e0638008 	rsb	r8, r3, r8
    94dc:	e06c3005 	rsb	r3, ip, r5
    94e0:	e1a03143 	asr	r3, r3, #2
    94e4:	e2433001 	sub	r3, r3, #1
    94e8:	e0833183 	add	r3, r3, r3, lsl #3
    94ec:	e1580003 	cmp	r8, r3
    94f0:	aa000089 	bge	971c <printf_core+0x1184>
    94f4:	e2888b09 	add	r8, r8, #9216	; 0x2400
    94f8:	e1a00008 	mov	r0, r8
    94fc:	e3a01009 	mov	r1, #9
    9500:	eb000571 	bl	aacc <__aeabi_idiv>
    9504:	e59dc028 	ldr	ip, [sp, #40]	; 0x28
    9508:	e2400fff 	sub	r0, r0, #1020	; 0x3fc
    950c:	e240010f 	sub	r0, r0, #-1073741821	; 0xc0000003
    9510:	e08c7100 	add	r7, ip, r0, lsl #2
    9514:	e3a01009 	mov	r1, #9
    9518:	e1a00008 	mov	r0, r8
    951c:	eb0005b4 	bl	abf4 <__aeabi_idivmod>
    9520:	e3a0800a 	mov	r8, #10
    9524:	e2811001 	add	r1, r1, #1
    9528:	e1a03008 	mov	r3, r8
    952c:	e3510009 	cmp	r1, #9
    9530:	10080893 	mulne	r8, r3, r8
    9534:	12811001 	addne	r1, r1, #1
    9538:	1afffffb 	bne	952c <printf_core+0xf94>
    953c:	e597c000 	ldr	ip, [r7]
    9540:	e1a01008 	mov	r1, r8
    9544:	e1a0000c 	mov	r0, ip
    9548:	e58dc00c 	str	ip, [sp, #12]
    954c:	eb000556 	bl	aaac <__aeabi_uidivmod>
    9550:	e2513000 	subs	r3, r1, #0
    9554:	e59dc00c 	ldr	ip, [sp, #12]
    9558:	1a000002 	bne	9568 <printf_core+0xfd0>
    955c:	e2872004 	add	r2, r7, #4
    9560:	e1550002 	cmp	r5, r2
    9564:	0a000062 	beq	96f4 <printf_core+0x115c>
    9568:	e1a0000c 	mov	r0, ip
    956c:	e1a01008 	mov	r1, r8
    9570:	e58d3010 	str	r3, [sp, #16]
    9574:	e58dc00c 	str	ip, [sp, #12]
    9578:	eb00050e 	bl	a9b8 <__aeabi_uidiv>
    957c:	e59d3010 	ldr	r3, [sp, #16]
    9580:	e2000001 	and	r0, r0, #1
    9584:	e15300c8 	cmp	r3, r8, asr #1
    9588:	e58d0034 	str	r0, [sp, #52]	; 0x34
    958c:	e59f90f8 	ldr	r9, [pc, #248]	; 968c <printf_core+0x10f4>
    9590:	e59dc00c 	ldr	ip, [sp, #12]
    9594:	359fe0f4 	ldrcc	lr, [pc, #244]	; 9690 <printf_core+0x10f8>
    9598:	3a000007 	bcc	95bc <printf_core+0x1024>
    959c:	159fe0f0 	ldrne	lr, [pc, #240]	; 9694 <printf_core+0x10fc>
    95a0:	1a000005 	bne	95bc <printf_core+0x1024>
    95a4:	e287e004 	add	lr, r7, #4
    95a8:	e59f20e4 	ldr	r2, [pc, #228]	; 9694 <printf_core+0x10fc>
    95ac:	e59f10e4 	ldr	r1, [pc, #228]	; 9698 <printf_core+0x1100>
    95b0:	e155000e 	cmp	r5, lr
    95b4:	01a0e001 	moveq	lr, r1
    95b8:	11a0e002 	movne	lr, r2
    95bc:	e59d0020 	ldr	r0, [sp, #32]
    95c0:	e3500000 	cmp	r0, #0
    95c4:	0a000004 	beq	95dc <printf_core+0x1044>
    95c8:	e59d1030 	ldr	r1, [sp, #48]	; 0x30
    95cc:	e5d12000 	ldrb	r2, [r1]
    95d0:	e352002d 	cmp	r2, #45	; 0x2d
    95d4:	059f90c0 	ldreq	r9, [pc, #192]	; 969c <printf_core+0x1104>
    95d8:	028ee102 	addeq	lr, lr, #-2147483648	; 0x80000000
    95dc:	e063c00c 	rsb	ip, r3, ip
    95e0:	e587c000 	str	ip, [r7]
    95e4:	e1a0300e 	mov	r3, lr
    95e8:	e3a02000 	mov	r2, #0
    95ec:	e59d0034 	ldr	r0, [sp, #52]	; 0x34
    95f0:	e1a01009 	mov	r1, r9
    95f4:	e58dc00c 	str	ip, [sp, #12]
    95f8:	eb000590 	bl	ac40 <__adddf3>
    95fc:	e59d2034 	ldr	r2, [sp, #52]	; 0x34
    9600:	e1a03009 	mov	r3, r9
    9604:	eb0007eb 	bl	b5b8 <__aeabi_dcmpeq>
    9608:	e3500000 	cmp	r0, #0
    960c:	e59dc00c 	ldr	ip, [sp, #12]
    9610:	1a000037 	bne	96f4 <printf_core+0x115c>
    9614:	e08c8008 	add	r8, ip, r8
    9618:	e1a03007 	mov	r3, r7
    961c:	e59f207c 	ldr	r2, [pc, #124]	; 96a0 <printf_core+0x1108>
    9620:	e4838004 	str	r8, [r3], #4
    9624:	e2437004 	sub	r7, r3, #4
    9628:	e5133004 	ldr	r3, [r3, #-4]
    962c:	e1530002 	cmp	r3, r2
    9630:	9a00001f 	bls	96b4 <printf_core+0x111c>
    9634:	e5171004 	ldr	r1, [r7, #-4]
    9638:	e1a03007 	mov	r3, r7
    963c:	e2811001 	add	r1, r1, #1
    9640:	e5870000 	str	r0, [r7]
    9644:	e5071004 	str	r1, [r7, #-4]
    9648:	eafffff5 	b	9624 <printf_core+0x108c>
    964c:	00012889 	andeq	r2, r1, r9, lsl #17
    9650:	0000c155 	andeq	ip, r0, r5, asr r1
    9654:	fffffda8 			; <UNDEFINED> instruction: 0xfffffda8
    9658:	0000c336 	andeq	ip, r0, r6, lsr r3
    965c:	0000c33f 	andeq	ip, r0, pc, lsr r3
    9660:	0000c346 	andeq	ip, r0, r6, asr #6
    9664:	0000c347 	andeq	ip, r0, r7, asr #6
    9668:	0000c349 	andeq	ip, r0, r9, asr #6
    966c:	7fefffff 	svcvc	0x00efffff
    9670:	0000c359 	andeq	ip, r0, r9, asr r3
    9674:	0000c35d 	andeq	ip, r0, sp, asr r3
    9678:	40200000 	eormi	r0, r0, r0
    967c:	40300000 	eorsmi	r0, r0, r0
    9680:	41b00000 	movsmi	r0, r0
    9684:	41cdcd65 	bicmi	ip, sp, r5, ror #26
    9688:	3b9aca00 	blcc	fe6bbe90 <_stack+0xfe63be90>
    968c:	43400000 	movtmi	r0, #0
    9690:	3fe00000 	svccc	0x00e00000
    9694:	3ff80000 	svccc	0x00f80000
    9698:	3ff00000 	svccc	0x00f00000	; IMB
    969c:	c3400000 	movtgt	r0, #0
    96a0:	3b9ac9ff 	blcc	fe6bbea4 <_stack+0xfe63bea4>
    96a4:	0000c369 	andeq	ip, r0, r9, ror #6
    96a8:	0000c335 	andeq	ip, r0, r5, lsr r3
    96ac:	0000c365 	andeq	ip, r0, r5, ror #6
    96b0:	0000c361 	andeq	ip, r0, r1, ror #6
    96b4:	e59d6014 	ldr	r6, [sp, #20]
    96b8:	e59dc028 	ldr	ip, [sp, #40]	; 0x28
    96bc:	e1570006 	cmp	r7, r6
    96c0:	31a06007 	movcc	r6, r7
    96c4:	e58d6014 	str	r6, [sp, #20]
    96c8:	e066600c 	rsb	r6, r6, ip
    96cc:	e59dc014 	ldr	ip, [sp, #20]
    96d0:	e1a06146 	asr	r6, r6, #2
    96d4:	e3a0300a 	mov	r3, #10
    96d8:	e59c2000 	ldr	r2, [ip]
    96dc:	e0866186 	add	r6, r6, r6, lsl #3
    96e0:	e1a01003 	mov	r1, r3
    96e4:	e1520003 	cmp	r2, r3
    96e8:	20030391 	mulcs	r3, r1, r3
    96ec:	22866001 	addcs	r6, r6, #1
    96f0:	2afffffb 	bcs	96e4 <printf_core+0x114c>
    96f4:	e2877004 	add	r7, r7, #4
    96f8:	e1570005 	cmp	r7, r5
    96fc:	31a05007 	movcc	r5, r7
    9700:	e5153004 	ldr	r3, [r5, #-4]
    9704:	e3530000 	cmp	r3, #0
    9708:	1a000003 	bne	971c <printf_core+0x1184>
    970c:	e59d7014 	ldr	r7, [sp, #20]
    9710:	e1550007 	cmp	r5, r7
    9714:	82455004 	subhi	r5, r5, #4
    9718:	8afffff8 	bhi	9700 <printf_core+0x1168>
    971c:	e59dc040 	ldr	ip, [sp, #64]	; 0x40
    9720:	e35c0067 	cmp	ip, #103	; 0x67
    9724:	1a00002e 	bne	97e4 <printf_core+0x124c>
    9728:	e3540000 	cmp	r4, #0
    972c:	03a04001 	moveq	r4, #1
    9730:	e3760004 	cmn	r6, #4
    9734:	a1540006 	cmpge	r4, r6
    9738:	c59d701c 	ldrgt	r7, [sp, #28]
    973c:	d59dc01c 	ldrle	ip, [sp, #28]
    9740:	c2477001 	subgt	r7, r7, #1
    9744:	c1e03006 	mvngt	r3, r6
    9748:	d24cc002 	suble	ip, ip, #2
    974c:	c58d701c 	strgt	r7, [sp, #28]
    9750:	c0844003 	addgt	r4, r4, r3
    9754:	d58dc01c 	strle	ip, [sp, #28]
    9758:	d2444001 	suble	r4, r4, #1
    975c:	e21b7008 	ands	r7, fp, #8
    9760:	1a00001f 	bne	97e4 <printf_core+0x124c>
    9764:	e59dc014 	ldr	ip, [sp, #20]
    9768:	e155000c 	cmp	r5, ip
    976c:	9a00000e 	bls	97ac <printf_core+0x1214>
    9770:	e5159004 	ldr	r9, [r5, #-4]
    9774:	e3590000 	cmp	r9, #0
    9778:	13a0800a 	movne	r8, #10
    977c:	11a03008 	movne	r3, r8
    9780:	0a000009 	beq	97ac <printf_core+0x1214>
    9784:	e1a00009 	mov	r0, r9
    9788:	e1a01008 	mov	r1, r8
    978c:	e58d3010 	str	r3, [sp, #16]
    9790:	eb0004c5 	bl	aaac <__aeabi_uidivmod>
    9794:	e3510000 	cmp	r1, #0
    9798:	e59d3010 	ldr	r3, [sp, #16]
    979c:	1a000003 	bne	97b0 <printf_core+0x1218>
    97a0:	e0080893 	mul	r8, r3, r8
    97a4:	e2877001 	add	r7, r7, #1
    97a8:	eafffff5 	b	9784 <printf_core+0x11ec>
    97ac:	e3a07009 	mov	r7, #9
    97b0:	e59dc01c 	ldr	ip, [sp, #28]
    97b4:	e38c3020 	orr	r3, ip, #32
    97b8:	e59dc028 	ldr	ip, [sp, #40]	; 0x28
    97bc:	e3530066 	cmp	r3, #102	; 0x66
    97c0:	e06c3005 	rsb	r3, ip, r5
    97c4:	e1a03143 	asr	r3, r3, #2
    97c8:	e2433001 	sub	r3, r3, #1
    97cc:	e0833183 	add	r3, r3, r3, lsl #3
    97d0:	10833006 	addne	r3, r3, r6
    97d4:	e0677003 	rsb	r7, r7, r3
    97d8:	e1c77fc7 	bic	r7, r7, r7, asr #31
    97dc:	e1540007 	cmp	r4, r7
    97e0:	a1a04007 	movge	r4, r7
    97e4:	e59d701c 	ldr	r7, [sp, #28]
    97e8:	e3540000 	cmp	r4, #0
    97ec:	01a091ab 	lsreq	r9, fp, #3
    97f0:	e3878020 	orr	r8, r7, #32
    97f4:	02099001 	andeq	r9, r9, #1
    97f8:	13a09001 	movne	r9, #1
    97fc:	e2843001 	add	r3, r4, #1
    9800:	e3580066 	cmp	r8, #102	; 0x66
    9804:	e0839009 	add	r9, r3, r9
    9808:	1a000003 	bne	981c <printf_core+0x1284>
    980c:	e3560000 	cmp	r6, #0
    9810:	c0899006 	addgt	r9, r9, r6
    9814:	e3a07000 	mov	r7, #0
    9818:	ea000014 	b	9870 <printf_core+0x12d8>
    981c:	e0260fc6 	eor	r0, r6, r6, asr #31
    9820:	e0400fc6 	sub	r0, r0, r6, asr #31
    9824:	e28d7070 	add	r7, sp, #112	; 0x70
    9828:	e1a01fc0 	asr	r1, r0, #31
    982c:	e1a02007 	mov	r2, r7
    9830:	ebfffad0 	bl	8378 <fmt_u>
    9834:	e1a03007 	mov	r3, r7
    9838:	e3a01030 	mov	r1, #48	; 0x30
    983c:	e0602003 	rsb	r2, r0, r3
    9840:	e3520001 	cmp	r2, #1
    9844:	d5601001 	strble	r1, [r0, #-1]!
    9848:	dafffffb 	ble	983c <printf_core+0x12a4>
    984c:	e3560000 	cmp	r6, #0
    9850:	e2407002 	sub	r7, r0, #2
    9854:	e59dc01c 	ldr	ip, [sp, #28]
    9858:	a3a0602b 	movge	r6, #43	; 0x2b
    985c:	b3a0602d 	movlt	r6, #45	; 0x2d
    9860:	e0673003 	rsb	r3, r7, r3
    9864:	e5406001 	strb	r6, [r0, #-1]
    9868:	e540c002 	strb	ip, [r0, #-2]
    986c:	e0899003 	add	r9, r9, r3
    9870:	e59d6020 	ldr	r6, [sp, #32]
    9874:	e1a0000a 	mov	r0, sl
    9878:	e0869009 	add	r9, r6, r9
    987c:	e1a03009 	mov	r3, r9
    9880:	e3a01020 	mov	r1, #32
    9884:	e59d2018 	ldr	r2, [sp, #24]
    9888:	e58db000 	str	fp, [sp]
    988c:	e58d901c 	str	r9, [sp, #28]
    9890:	ebfffb24 	bl	8528 <pad>
    9894:	e59d1020 	ldr	r1, [sp, #32]
    9898:	e1a0200a 	mov	r2, sl
    989c:	e59d0030 	ldr	r0, [sp, #48]	; 0x30
    98a0:	eb00015a 	bl	9e10 <__fwritex>
    98a4:	e22b3801 	eor	r3, fp, #65536	; 0x10000
    98a8:	e58d3000 	str	r3, [sp]
    98ac:	e1a0000a 	mov	r0, sl
    98b0:	e3a01030 	mov	r1, #48	; 0x30
    98b4:	e59d2018 	ldr	r2, [sp, #24]
    98b8:	e59d301c 	ldr	r3, [sp, #28]
    98bc:	ebfffb19 	bl	8528 <pad>
    98c0:	e3580066 	cmp	r8, #102	; 0x66
    98c4:	1a000049 	bne	99f0 <printf_core+0x1458>
    98c8:	e59d7014 	ldr	r7, [sp, #20]
    98cc:	e59dc028 	ldr	ip, [sp, #40]	; 0x28
    98d0:	e3a08030 	mov	r8, #48	; 0x30
    98d4:	e157000c 	cmp	r7, ip
    98d8:	21a0700c 	movcs	r7, ip
    98dc:	e58d7014 	str	r7, [sp, #20]
    98e0:	e1a09007 	mov	r9, r7
    98e4:	e28d7070 	add	r7, sp, #112	; 0x70
    98e8:	e2876009 	add	r6, r7, #9
    98ec:	e59dc028 	ldr	ip, [sp, #40]	; 0x28
    98f0:	e159000c 	cmp	r9, ip
    98f4:	8a000014 	bhi	994c <printf_core+0x13b4>
    98f8:	e5990000 	ldr	r0, [r9]
    98fc:	e3a01000 	mov	r1, #0
    9900:	e1a02006 	mov	r2, r6
    9904:	ebfffa9b 	bl	8378 <fmt_u>
    9908:	e59d3014 	ldr	r3, [sp, #20]
    990c:	e1590003 	cmp	r9, r3
    9910:	0a000005 	beq	992c <printf_core+0x1394>
    9914:	e1a03000 	mov	r3, r0
    9918:	e1530007 	cmp	r3, r7
    991c:	e1a00003 	mov	r0, r3
    9920:	9a000004 	bls	9938 <printf_core+0x13a0>
    9924:	e5638001 	strb	r8, [r3, #-1]!
    9928:	eafffffa 	b	9918 <printf_core+0x1380>
    992c:	e1500006 	cmp	r0, r6
    9930:	028d0faa 	addeq	r0, sp, #680	; 0x2a8
    9934:	05608230 	strbeq	r8, [r0, #-560]!	; 0x230
    9938:	e0601006 	rsb	r1, r0, r6
    993c:	e1a0200a 	mov	r2, sl
    9940:	eb000132 	bl	9e10 <__fwritex>
    9944:	e2899004 	add	r9, r9, #4
    9948:	eaffffe7 	b	98ec <printf_core+0x1354>
    994c:	e3540000 	cmp	r4, #0
    9950:	1a000001 	bne	995c <printf_core+0x13c4>
    9954:	e31b0008 	tst	fp, #8
    9958:	0a000003 	beq	996c <printf_core+0x13d4>
    995c:	e51f02c0 	ldr	r0, [pc, #-704]	; 96a4 <printf_core+0x110c>
    9960:	e3a01001 	mov	r1, #1
    9964:	e1a0200a 	mov	r2, sl
    9968:	eb000128 	bl	9e10 <__fwritex>
    996c:	e28d6070 	add	r6, sp, #112	; 0x70
    9970:	e2867009 	add	r7, r6, #9
    9974:	e3a08030 	mov	r8, #48	; 0x30
    9978:	e1550009 	cmp	r5, r9
    997c:	93a03000 	movls	r3, #0
    9980:	83a03001 	movhi	r3, #1
    9984:	e3540000 	cmp	r4, #0
    9988:	d3a03000 	movle	r3, #0
    998c:	e3530000 	cmp	r3, #0
    9990:	e1a02009 	mov	r2, r9
    9994:	0a00000e 	beq	99d4 <printf_core+0x143c>
    9998:	e5920000 	ldr	r0, [r2]
    999c:	e3a01000 	mov	r1, #0
    99a0:	e1a02007 	mov	r2, r7
    99a4:	e2899004 	add	r9, r9, #4
    99a8:	ebfffa72 	bl	8378 <fmt_u>
    99ac:	e1500006 	cmp	r0, r6
    99b0:	85608001 	strbhi	r8, [r0, #-1]!
    99b4:	8afffffc 	bhi	99ac <printf_core+0x1414>
    99b8:	e3540009 	cmp	r4, #9
    99bc:	b1a01004 	movlt	r1, r4
    99c0:	a3a01009 	movge	r1, #9
    99c4:	e1a0200a 	mov	r2, sl
    99c8:	eb000110 	bl	9e10 <__fwritex>
    99cc:	e2444009 	sub	r4, r4, #9
    99d0:	eaffffe8 	b	9978 <printf_core+0x13e0>
    99d4:	e58d3000 	str	r3, [sp]
    99d8:	e1a0000a 	mov	r0, sl
    99dc:	e3a01030 	mov	r1, #48	; 0x30
    99e0:	e2842009 	add	r2, r4, #9
    99e4:	e3a03009 	mov	r3, #9
    99e8:	ebffface 	bl	8528 <pad>
    99ec:	ea00003f 	b	9af0 <printf_core+0x1558>
    99f0:	e59d6014 	ldr	r6, [sp, #20]
    99f4:	e28dc070 	add	ip, sp, #112	; 0x70
    99f8:	e1550006 	cmp	r5, r6
    99fc:	92865004 	addls	r5, r6, #4
    9a00:	e59d6014 	ldr	r6, [sp, #20]
    9a04:	e58dc020 	str	ip, [sp, #32]
    9a08:	e28d8079 	add	r8, sp, #121	; 0x79
    9a0c:	e1e03004 	mvn	r3, r4
    9a10:	e1560005 	cmp	r6, r5
    9a14:	e1a03fa3 	lsr	r3, r3, #31
    9a18:	23a03000 	movcs	r3, #0
    9a1c:	e3530000 	cmp	r3, #0
    9a20:	0a000027 	beq	9ac4 <printf_core+0x152c>
    9a24:	e3a01000 	mov	r1, #0
    9a28:	e5960000 	ldr	r0, [r6]
    9a2c:	e1a02008 	mov	r2, r8
    9a30:	ebfffa50 	bl	8378 <fmt_u>
    9a34:	e59dc014 	ldr	ip, [sp, #20]
    9a38:	e1500008 	cmp	r0, r8
    9a3c:	028d0faa 	addeq	r0, sp, #680	; 0x2a8
    9a40:	03a01030 	moveq	r1, #48	; 0x30
    9a44:	05601230 	strbeq	r1, [r0, #-560]!	; 0x230
    9a48:	e156000c 	cmp	r6, ip
    9a4c:	0a000006 	beq	9a6c <printf_core+0x14d4>
    9a50:	e59d3020 	ldr	r3, [sp, #32]
    9a54:	e1a09000 	mov	r9, r0
    9a58:	e1500003 	cmp	r0, r3
    9a5c:	9a00000e 	bls	9a9c <printf_core+0x1504>
    9a60:	e3a01030 	mov	r1, #48	; 0x30
    9a64:	e5601001 	strb	r1, [r0, #-1]!
    9a68:	eafffff8 	b	9a50 <printf_core+0x14b8>
    9a6c:	e3a01001 	mov	r1, #1
    9a70:	e1a0200a 	mov	r2, sl
    9a74:	e2809001 	add	r9, r0, #1
    9a78:	eb0000e4 	bl	9e10 <__fwritex>
    9a7c:	e3540000 	cmp	r4, #0
    9a80:	1a000001 	bne	9a8c <printf_core+0x14f4>
    9a84:	e31b0008 	tst	fp, #8
    9a88:	0a000003 	beq	9a9c <printf_core+0x1504>
    9a8c:	e51f03f0 	ldr	r0, [pc, #-1008]	; 96a4 <printf_core+0x110c>
    9a90:	e3a01001 	mov	r1, #1
    9a94:	e1a0200a 	mov	r2, sl
    9a98:	eb0000dc 	bl	9e10 <__fwritex>
    9a9c:	e0691008 	rsb	r1, r9, r8
    9aa0:	e1a00009 	mov	r0, r9
    9aa4:	e1510004 	cmp	r1, r4
    9aa8:	a1a01004 	movge	r1, r4
    9aac:	e1a0200a 	mov	r2, sl
    9ab0:	e0689009 	rsb	r9, r8, r9
    9ab4:	eb0000d5 	bl	9e10 <__fwritex>
    9ab8:	e0844009 	add	r4, r4, r9
    9abc:	e2866004 	add	r6, r6, #4
    9ac0:	eaffffd1 	b	9a0c <printf_core+0x1474>
    9ac4:	e58d3000 	str	r3, [sp]
    9ac8:	e1a0000a 	mov	r0, sl
    9acc:	e3a01030 	mov	r1, #48	; 0x30
    9ad0:	e2842012 	add	r2, r4, #18
    9ad4:	e3a03012 	mov	r3, #18
    9ad8:	ebfffa92 	bl	8528 <pad>
    9adc:	e28d1070 	add	r1, sp, #112	; 0x70
    9ae0:	e1a00007 	mov	r0, r7
    9ae4:	e0671001 	rsb	r1, r7, r1
    9ae8:	e1a0200a 	mov	r2, sl
    9aec:	eb0000c7 	bl	9e10 <__fwritex>
    9af0:	e22b3a02 	eor	r3, fp, #8192	; 0x2000
    9af4:	e58d3000 	str	r3, [sp]
    9af8:	e1a0000a 	mov	r0, sl
    9afc:	e3a01020 	mov	r1, #32
    9b00:	e59d2018 	ldr	r2, [sp, #24]
    9b04:	e59d301c 	ldr	r3, [sp, #28]
    9b08:	ebfffa86 	bl	8528 <pad>
    9b0c:	e59d501c 	ldr	r5, [sp, #28]
    9b10:	e59d6018 	ldr	r6, [sp, #24]
    9b14:	eafffdbf 	b	9218 <printf_core+0xc80>
    9b18:	e51f8478 	ldr	r8, [pc, #-1144]	; 96a8 <printf_core+0x1110>
    9b1c:	e3a07000 	mov	r7, #0
    9b20:	e28d00b0 	add	r0, sp, #176	; 0xb0
    9b24:	e066c000 	rsb	ip, r6, r0
    9b28:	e154000c 	cmp	r4, ip
    9b2c:	b1a0400c 	movlt	r4, ip
    9b30:	e59d5018 	ldr	r5, [sp, #24]
    9b34:	e0879004 	add	r9, r7, r4
    9b38:	e1550009 	cmp	r5, r9
    9b3c:	b1a05009 	movlt	r5, r9
    9b40:	e1a03009 	mov	r3, r9
    9b44:	e1a0000a 	mov	r0, sl
    9b48:	e1a02005 	mov	r2, r5
    9b4c:	e58db000 	str	fp, [sp]
    9b50:	e3a01020 	mov	r1, #32
    9b54:	e58dc00c 	str	ip, [sp, #12]
    9b58:	ebfffa72 	bl	8528 <pad>
    9b5c:	e1a01007 	mov	r1, r7
    9b60:	e1a0200a 	mov	r2, sl
    9b64:	e1a00008 	mov	r0, r8
    9b68:	eb0000a8 	bl	9e10 <__fwritex>
    9b6c:	e22b3801 	eor	r3, fp, #65536	; 0x10000
    9b70:	e58d3000 	str	r3, [sp]
    9b74:	e1a0000a 	mov	r0, sl
    9b78:	e1a02005 	mov	r2, r5
    9b7c:	e1a03009 	mov	r3, r9
    9b80:	e3a01030 	mov	r1, #48	; 0x30
    9b84:	ebfffa67 	bl	8528 <pad>
    9b88:	e59dc00c 	ldr	ip, [sp, #12]
    9b8c:	e3a03000 	mov	r3, #0
    9b90:	e58d3000 	str	r3, [sp]
    9b94:	e1a0000a 	mov	r0, sl
    9b98:	e1a0300c 	mov	r3, ip
    9b9c:	e1a02004 	mov	r2, r4
    9ba0:	e3a01030 	mov	r1, #48	; 0x30
    9ba4:	ebfffa5f 	bl	8528 <pad>
    9ba8:	e59dc00c 	ldr	ip, [sp, #12]
    9bac:	e1a0200a 	mov	r2, sl
    9bb0:	e1a0100c 	mov	r1, ip
    9bb4:	e1a00006 	mov	r0, r6
    9bb8:	eb000094 	bl	9e10 <__fwritex>
    9bbc:	e22b3a02 	eor	r3, fp, #8192	; 0x2000
    9bc0:	e58d3000 	str	r3, [sp]
    9bc4:	e1a0000a 	mov	r0, sl
    9bc8:	e3a01020 	mov	r1, #32
    9bcc:	e1a02005 	mov	r2, r5
    9bd0:	e1a03009 	mov	r3, r9
    9bd4:	ebfffa53 	bl	8528 <pad>
    9bd8:	eafffaa9 	b	8684 <printf_core+0xec>
    9bdc:	e35a0000 	cmp	sl, #0
    9be0:	159d0024 	ldrne	r0, [sp, #36]	; 0x24
    9be4:	1a000041 	bne	9cf0 <printf_core+0x1758>
    9be8:	e59d703c 	ldr	r7, [sp, #60]	; 0x3c
    9bec:	e3570000 	cmp	r7, #0
    9bf0:	159d52d0 	ldrne	r5, [sp, #720]	; 0x2d0
    9bf4:	13a04001 	movne	r4, #1
    9bf8:	0afffb4c 	beq	8930 <printf_core+0x398>
    9bfc:	e5b51004 	ldr	r1, [r5, #4]!
    9c00:	e3510000 	cmp	r1, #0
    9c04:	0a00000c 	beq	9c3c <printf_core+0x16a4>
    9c08:	e59dc044 	ldr	ip, [sp, #68]	; 0x44
    9c0c:	e59d2038 	ldr	r2, [sp, #56]	; 0x38
    9c10:	e08c0184 	add	r0, ip, r4, lsl #3
    9c14:	e2844001 	add	r4, r4, #1
    9c18:	ebfff9fc 	bl	8410 <pop_arg>
    9c1c:	e354000a 	cmp	r4, #10
    9c20:	1afffff5 	bne	9bfc <printf_core+0x1664>
    9c24:	ea000004 	b	9c3c <printf_core+0x16a4>
    9c28:	e59d62d0 	ldr	r6, [sp, #720]	; 0x2d0
    9c2c:	e7963104 	ldr	r3, [r6, r4, lsl #2]
    9c30:	e3530000 	cmp	r3, #0
    9c34:	1affface 	bne	8774 <printf_core+0x1dc>
    9c38:	e2844001 	add	r4, r4, #1
    9c3c:	e354000a 	cmp	r4, #10
    9c40:	1afffff8 	bne	9c28 <printf_core+0x1690>
    9c44:	e3a00001 	mov	r0, #1
    9c48:	ea000028 	b	9cf0 <printf_core+0x1758>
    9c4c:	e58db000 	str	fp, [sp]
    9c50:	e1a0000a 	mov	r0, sl
    9c54:	e3a01020 	mov	r1, #32
    9c58:	e59d2018 	ldr	r2, [sp, #24]
    9c5c:	e1a03005 	mov	r3, r5
    9c60:	ebfffa30 	bl	8528 <pad>
    9c64:	e59d4050 	ldr	r4, [sp, #80]	; 0x50
    9c68:	e3a06000 	mov	r6, #0
    9c6c:	e2444004 	sub	r4, r4, #4
    9c70:	e1560005 	cmp	r6, r5
    9c74:	3a000007 	bcc	9c98 <printf_core+0x1700>
    9c78:	e22b3a02 	eor	r3, fp, #8192	; 0x2000
    9c7c:	e58d3000 	str	r3, [sp]
    9c80:	e1a0000a 	mov	r0, sl
    9c84:	e3a01020 	mov	r1, #32
    9c88:	e59d2018 	ldr	r2, [sp, #24]
    9c8c:	e1a03005 	mov	r3, r5
    9c90:	ebfffa24 	bl	8528 <pad>
    9c94:	eaffff9d 	b	9b10 <printf_core+0x1578>
    9c98:	e5b41004 	ldr	r1, [r4, #4]!
    9c9c:	e3510000 	cmp	r1, #0
    9ca0:	0afffff4 	beq	9c78 <printf_core+0x16e0>
    9ca4:	e28d0048 	add	r0, sp, #72	; 0x48
    9ca8:	eb00026f 	bl	a66c <wctomb>
    9cac:	e0866000 	add	r6, r6, r0
    9cb0:	e1560005 	cmp	r6, r5
    9cb4:	e1a01000 	mov	r1, r0
    9cb8:	caffffee 	bgt	9c78 <printf_core+0x16e0>
    9cbc:	e28d0048 	add	r0, sp, #72	; 0x48
    9cc0:	e1a0200a 	mov	r2, sl
    9cc4:	eb000051 	bl	9e10 <__fwritex>
    9cc8:	eaffffe8 	b	9c70 <printf_core+0x16d8>
    9ccc:	eb000639 	bl	b5b8 <__aeabi_dcmpeq>
    9cd0:	e59d7020 	ldr	r7, [sp, #32]
    9cd4:	e3500000 	cmp	r0, #0
    9cd8:	e51f3634 	ldr	r3, [pc, #-1588]	; 96ac <printf_core+0x1114>
    9cdc:	e51f4634 	ldr	r4, [pc, #-1588]	; 96b0 <printf_core+0x1118>
    9ce0:	03a07000 	moveq	r7, #0
    9ce4:	11a04003 	movne	r4, r3
    9ce8:	e58d7020 	str	r7, [sp, #32]
    9cec:	eafffc60 	b	8e74 <printf_core+0x8dc>
    9cf0:	e28ddfab 	add	sp, sp, #684	; 0x2ac
    9cf4:	e8bd8ff0 	pop	{r4, r5, r6, r7, r8, r9, sl, fp, pc}

00009cf8 <vfprintf>:
    9cf8:	e92d43f0 	push	{r4, r5, r6, r7, r8, r9, lr}
    9cfc:	e24dd0dc 	sub	sp, sp, #220	; 0xdc
    9d00:	e28d6010 	add	r6, sp, #16
    9d04:	e1a09001 	mov	r9, r1
    9d08:	e1a07002 	mov	r7, r2
    9d0c:	e3a01000 	mov	r1, #0
    9d10:	e3a02028 	mov	r2, #40	; 0x28
    9d14:	e28d50d8 	add	r5, sp, #216	; 0xd8
    9d18:	e1a04000 	mov	r4, r0
    9d1c:	e1a00006 	mov	r0, r6
    9d20:	ebfff949 	bl	824c <memset>
    9d24:	e52570cc 	str	r7, [r5, #-204]!	; 0xcc
    9d28:	e3a00000 	mov	r0, #0
    9d2c:	e58d6000 	str	r6, [sp]
    9d30:	e1a01009 	mov	r1, r9
    9d34:	e1a02005 	mov	r2, r5
    9d38:	e28d3038 	add	r3, sp, #56	; 0x38
    9d3c:	ebfffa15 	bl	8598 <printf_core>
    9d40:	e3500000 	cmp	r0, #0
    9d44:	b3e00000 	mvnlt	r0, #0
    9d48:	ba00002e 	blt	9e08 <vfprintf+0x110>
    9d4c:	e594304c 	ldr	r3, [r4, #76]	; 0x4c
    9d50:	e3530000 	cmp	r3, #0
    9d54:	b3a08000 	movlt	r8, #0
    9d58:	ba000002 	blt	9d68 <vfprintf+0x70>
    9d5c:	e1a00004 	mov	r0, r4
    9d60:	eb0000cd 	bl	a09c <__lockfile>
    9d64:	e1a08000 	mov	r8, r0
    9d68:	e5943030 	ldr	r3, [r4, #48]	; 0x30
    9d6c:	e1a02005 	mov	r2, r5
    9d70:	e3530000 	cmp	r3, #0
    9d74:	028d3088 	addeq	r3, sp, #136	; 0x88
    9d78:	0584301c 	streq	r3, [r4, #28]
    9d7c:	05843014 	streq	r3, [r4, #20]
    9d80:	0594702c 	ldreq	r7, [r4, #44]	; 0x2c
    9d84:	0584302c 	streq	r3, [r4, #44]	; 0x2c
    9d88:	03a03050 	moveq	r3, #80	; 0x50
    9d8c:	05843030 	streq	r3, [r4, #48]	; 0x30
    9d90:	028d30d8 	addeq	r3, sp, #216	; 0xd8
    9d94:	05843010 	streq	r3, [r4, #16]
    9d98:	e58d6000 	str	r6, [sp]
    9d9c:	e1a00004 	mov	r0, r4
    9da0:	e1a01009 	mov	r1, r9
    9da4:	e28d3038 	add	r3, sp, #56	; 0x38
    9da8:	13a07000 	movne	r7, #0
    9dac:	ebfff9f9 	bl	8598 <printf_core>
    9db0:	e3570000 	cmp	r7, #0
    9db4:	e1a05000 	mov	r5, r0
    9db8:	0a00000d 	beq	9df4 <vfprintf+0xfc>
    9dbc:	e3a01000 	mov	r1, #0
    9dc0:	e5943024 	ldr	r3, [r4, #36]	; 0x24
    9dc4:	e1a00004 	mov	r0, r4
    9dc8:	e1a02001 	mov	r2, r1
    9dcc:	e12fff33 	blx	r3
    9dd0:	e5943014 	ldr	r3, [r4, #20]
    9dd4:	e584702c 	str	r7, [r4, #44]	; 0x2c
    9dd8:	e3530000 	cmp	r3, #0
    9ddc:	e3a03000 	mov	r3, #0
    9de0:	03e05000 	mvneq	r5, #0
    9de4:	e5843030 	str	r3, [r4, #48]	; 0x30
    9de8:	e5843010 	str	r3, [r4, #16]
    9dec:	e584301c 	str	r3, [r4, #28]
    9df0:	e5843014 	str	r3, [r4, #20]
    9df4:	e3580000 	cmp	r8, #0
    9df8:	0a000001 	beq	9e04 <vfprintf+0x10c>
    9dfc:	e1a00004 	mov	r0, r4
    9e00:	eb0000a6 	bl	a0a0 <__unlockfile>
    9e04:	e1a00005 	mov	r0, r5
    9e08:	e28dd0dc 	add	sp, sp, #220	; 0xdc
    9e0c:	e8bd83f0 	pop	{r4, r5, r6, r7, r8, r9, pc}

00009e10 <__fwritex>:
    9e10:	e92d40f8 	push	{r3, r4, r5, r6, r7, lr}
    9e14:	e5925010 	ldr	r5, [r2, #16]
    9e18:	e1a07000 	mov	r7, r0
    9e1c:	e3550000 	cmp	r5, #0
    9e20:	e1a06001 	mov	r6, r1
    9e24:	e1a04002 	mov	r4, r2
    9e28:	0a00000a 	beq	9e58 <__fwritex+0x48>
    9e2c:	e5942010 	ldr	r2, [r4, #16]
    9e30:	e5943014 	ldr	r3, [r4, #20]
    9e34:	e0633002 	rsb	r3, r3, r2
    9e38:	e1560003 	cmp	r6, r3
    9e3c:	9a00000a 	bls	9e6c <__fwritex+0x5c>
    9e40:	e5943024 	ldr	r3, [r4, #36]	; 0x24
    9e44:	e1a00004 	mov	r0, r4
    9e48:	e1a01007 	mov	r1, r7
    9e4c:	e1a02006 	mov	r2, r6
    9e50:	e12fff33 	blx	r3
    9e54:	e8bd80f8 	pop	{r3, r4, r5, r6, r7, pc}
    9e58:	e1a00002 	mov	r0, r2
    9e5c:	eb000078 	bl	a044 <__towrite>
    9e60:	e3500000 	cmp	r0, #0
    9e64:	0afffff0 	beq	9e2c <__fwritex+0x1c>
    9e68:	ea00001e 	b	9ee8 <__fwritex+0xd8>
    9e6c:	e1d434db 	ldrsb	r3, [r4, #75]	; 0x4b
    9e70:	e3530000 	cmp	r3, #0
    9e74:	ba000008 	blt	9e9c <__fwritex+0x8c>
    9e78:	e1a05006 	mov	r5, r6
    9e7c:	e3550000 	cmp	r5, #0
    9e80:	0a000006 	beq	9ea0 <__fwritex+0x90>
    9e84:	e2453001 	sub	r3, r5, #1
    9e88:	e7d72003 	ldrb	r2, [r7, r3]
    9e8c:	e352000a 	cmp	r2, #10
    9e90:	0a00000b 	beq	9ec4 <__fwritex+0xb4>
    9e94:	e1a05003 	mov	r5, r3
    9e98:	eafffff7 	b	9e7c <__fwritex+0x6c>
    9e9c:	e3a05000 	mov	r5, #0
    9ea0:	e5940014 	ldr	r0, [r4, #20]
    9ea4:	e1a01007 	mov	r1, r7
    9ea8:	e1a02006 	mov	r2, r6
    9eac:	eb00007c 	bl	a0a4 <memcpy>
    9eb0:	e5943014 	ldr	r3, [r4, #20]
    9eb4:	e0850006 	add	r0, r5, r6
    9eb8:	e0833006 	add	r3, r3, r6
    9ebc:	e5843014 	str	r3, [r4, #20]
    9ec0:	e8bd80f8 	pop	{r3, r4, r5, r6, r7, pc}
    9ec4:	e1a01007 	mov	r1, r7
    9ec8:	e5943024 	ldr	r3, [r4, #36]	; 0x24
    9ecc:	e1a00004 	mov	r0, r4
    9ed0:	e1a02005 	mov	r2, r5
    9ed4:	e12fff33 	blx	r3
    9ed8:	e1500005 	cmp	r0, r5
    9edc:	20877005 	addcs	r7, r7, r5
    9ee0:	20656006 	rsbcs	r6, r5, r6
    9ee4:	2affffed 	bcs	9ea0 <__fwritex+0x90>
    9ee8:	e1a00005 	mov	r0, r5
    9eec:	e8bd80f8 	pop	{r3, r4, r5, r6, r7, pc}

00009ef0 <fwrite>:
    9ef0:	e92d43f8 	push	{r3, r4, r5, r6, r7, r8, r9, lr}
    9ef4:	e0160192 	muls	r6, r2, r1
    9ef8:	e1a09000 	mov	r9, r0
    9efc:	e1a07001 	mov	r7, r1
    9f00:	e1a05002 	mov	r5, r2
    9f04:	e1a04003 	mov	r4, r3
    9f08:	0a000015 	beq	9f64 <fwrite+0x74>
    9f0c:	e593304c 	ldr	r3, [r3, #76]	; 0x4c
    9f10:	e3530000 	cmp	r3, #0
    9f14:	b3a08000 	movlt	r8, #0
    9f18:	ba000002 	blt	9f28 <fwrite+0x38>
    9f1c:	e1a00004 	mov	r0, r4
    9f20:	eb00005d 	bl	a09c <__lockfile>
    9f24:	e1a08000 	mov	r8, r0
    9f28:	e1a00009 	mov	r0, r9
    9f2c:	e1a01006 	mov	r1, r6
    9f30:	e1a02004 	mov	r2, r4
    9f34:	ebffffb5 	bl	9e10 <__fwritex>
    9f38:	e3580000 	cmp	r8, #0
    9f3c:	e1a09000 	mov	r9, r0
    9f40:	0a000001 	beq	9f4c <fwrite+0x5c>
    9f44:	e1a00004 	mov	r0, r4
    9f48:	eb000054 	bl	a0a0 <__unlockfile>
    9f4c:	e1590006 	cmp	r9, r6
    9f50:	0a000005 	beq	9f6c <fwrite+0x7c>
    9f54:	e1a00009 	mov	r0, r9
    9f58:	e1a01007 	mov	r1, r7
    9f5c:	eb000295 	bl	a9b8 <__aeabi_uidiv>
    9f60:	e8bd83f8 	pop	{r3, r4, r5, r6, r7, r8, r9, pc}
    9f64:	e1a00006 	mov	r0, r6
    9f68:	e8bd83f8 	pop	{r3, r4, r5, r6, r7, r8, r9, pc}
    9f6c:	e1a00005 	mov	r0, r5
    9f70:	e8bd83f8 	pop	{r3, r4, r5, r6, r7, r8, r9, pc}

00009f74 <__stdio_seek>:
    9f74:	e92d401f 	push	{r0, r1, r2, r3, r4, lr}
    9f78:	e1a0c002 	mov	ip, r2
    9f7c:	e28d2008 	add	r2, sp, #8
    9f80:	e58d2000 	str	r2, [sp]
    9f84:	e59d2018 	ldr	r2, [sp, #24]
    9f88:	e1a01000 	mov	r1, r0
    9f8c:	e58d2004 	str	r2, [sp, #4]
    9f90:	e591103c 	ldr	r1, [r1, #60]	; 0x3c
    9f94:	e1a02003 	mov	r2, r3
    9f98:	e3a0008c 	mov	r0, #140	; 0x8c
    9f9c:	e1a0300c 	mov	r3, ip
    9fa0:	eb0001f8 	bl	a788 <__syscall>
    9fa4:	eb000203 	bl	a7b8 <__syscall_ret>
    9fa8:	e3500000 	cmp	r0, #0
    9fac:	b3e02000 	mvnlt	r2, #0
    9fb0:	b3e03000 	mvnlt	r3, #0
    9fb4:	b1cd20f8 	strdlt	r2, [sp, #8]
    9fb8:	e1cd00d8 	ldrd	r0, [sp, #8]
    9fbc:	e28dd014 	add	sp, sp, #20
    9fc0:	e49df004 	pop	{pc}		; (ldr pc, [sp], #4)

00009fc4 <__stdio_close>:
    9fc4:	e92d4080 	push	{r7, lr}
    9fc8:	e590003c 	ldr	r0, [r0, #60]	; 0x3c
    9fcc:	e3a07006 	mov	r7, #6
    9fd0:	ef000000 	svc	0x00000000
    9fd4:	e8bd4080 	pop	{r7, lr}
    9fd8:	ea0001f6 	b	a7b8 <__syscall_ret>

00009fdc <__stdout_write>:
    9fdc:	e92d4080 	push	{r7, lr}
    9fe0:	e1a0c002 	mov	ip, r2
    9fe4:	e59f2050 	ldr	r2, [pc, #80]	; a03c <__stdout_write+0x60>
    9fe8:	e24dd040 	sub	sp, sp, #64	; 0x40
    9fec:	e5802024 	str	r2, [r0, #36]	; 0x24
    9ff0:	e5902000 	ldr	r2, [r0]
    9ff4:	e1a03000 	mov	r3, r0
    9ff8:	e3120040 	tst	r2, #64	; 0x40
    9ffc:	e1a0e001 	mov	lr, r1
    a000:	1a000007 	bne	a024 <__stdout_write+0x48>
    a004:	e3a07036 	mov	r7, #54	; 0x36
    a008:	e590003c 	ldr	r0, [r0, #60]	; 0x3c
    a00c:	e59f102c 	ldr	r1, [pc, #44]	; a040 <__stdout_write+0x64>
    a010:	e28d2004 	add	r2, sp, #4
    a014:	ef000000 	svc	0x00000000
    a018:	e3500000 	cmp	r0, #0
    a01c:	13e02000 	mvnne	r2, #0
    a020:	15c3204b 	strbne	r2, [r3, #75]	; 0x4b
    a024:	e1a00003 	mov	r0, r3
    a028:	e1a0100e 	mov	r1, lr
    a02c:	e1a0200c 	mov	r2, ip
    a030:	eb0001ea 	bl	a7e0 <__stdio_write>
    a034:	e28dd040 	add	sp, sp, #64	; 0x40
    a038:	e8bd8080 	pop	{r7, pc}
    a03c:	0000a7e0 	andeq	sl, r0, r0, ror #15
    a040:	00005401 	andeq	r5, r0, r1, lsl #8

0000a044 <__towrite>:
    a044:	e5d0304a 	ldrb	r3, [r0, #74]	; 0x4a
    a048:	e2432001 	sub	r2, r3, #1
    a04c:	e1833002 	orr	r3, r3, r2
    a050:	e5902000 	ldr	r2, [r0]
    a054:	e5c0304a 	strb	r3, [r0, #74]	; 0x4a
    a058:	e2123008 	ands	r3, r2, #8
    a05c:	0a000003 	beq	a070 <__towrite+0x2c>
    a060:	e3822020 	orr	r2, r2, #32
    a064:	e5802000 	str	r2, [r0]
    a068:	e3e00000 	mvn	r0, #0
    a06c:	e12fff1e 	bx	lr
    a070:	e590202c 	ldr	r2, [r0, #44]	; 0x2c
    a074:	e5901030 	ldr	r1, [r0, #48]	; 0x30
    a078:	e580201c 	str	r2, [r0, #28]
    a07c:	e5802014 	str	r2, [r0, #20]
    a080:	e0822001 	add	r2, r2, r1
    a084:	e5803008 	str	r3, [r0, #8]
    a088:	e5803004 	str	r3, [r0, #4]
    a08c:	e5802010 	str	r2, [r0, #16]
    a090:	e1a00003 	mov	r0, r3
    a094:	e12fff1e 	bx	lr

0000a098 <__flush_on_exit>:
    a098:	ea00022f 	b	a95c <__stdio_exit>

0000a09c <__lockfile>:
    a09c:	e12fff1e 	bx	lr

0000a0a0 <__unlockfile>:
    a0a0:	e12fff1e 	bx	lr

0000a0a4 <memcpy>:
    a0a4:	e92d40f0 	push	{r4, r5, r6, r7, lr}
    a0a8:	e1a03000 	mov	r3, r0
    a0ac:	e3110003 	tst	r1, #3
    a0b0:	0a000004 	beq	a0c8 <memcpy+0x24>
    a0b4:	e3520000 	cmp	r2, #0
    a0b8:	14d1c001 	ldrbne	ip, [r1], #1
    a0bc:	12422001 	subne	r2, r2, #1
    a0c0:	14c3c001 	strbne	ip, [r3], #1
    a0c4:	1afffff8 	bne	a0ac <memcpy+0x8>
    a0c8:	e2136003 	ands	r6, r3, #3
    a0cc:	e1a05001 	mov	r5, r1
    a0d0:	e1a0c003 	mov	ip, r3
    a0d4:	00836002 	addeq	r6, r3, r2
    a0d8:	1a00001d 	bne	a154 <memcpy+0xb0>
    a0dc:	e0634006 	rsb	r4, r3, r6
    a0e0:	e354000f 	cmp	r4, #15
    a0e4:	9a00000a 	bls	a114 <memcpy+0x70>
    a0e8:	e5914000 	ldr	r4, [r1]
    a0ec:	e2833010 	add	r3, r3, #16
    a0f0:	e5034010 	str	r4, [r3, #-16]
    a0f4:	e5914004 	ldr	r4, [r1, #4]
    a0f8:	e2811010 	add	r1, r1, #16
    a0fc:	e503400c 	str	r4, [r3, #-12]
    a100:	e5114008 	ldr	r4, [r1, #-8]
    a104:	e5034008 	str	r4, [r3, #-8]
    a108:	e5114004 	ldr	r4, [r1, #-4]
    a10c:	e5034004 	str	r4, [r3, #-4]
    a110:	eafffff1 	b	a0dc <memcpy+0x38>
    a114:	e1a04222 	lsr	r4, r2, #4
    a118:	e1a01204 	lsl	r1, r4, #4
    a11c:	e3120008 	tst	r2, #8
    a120:	e08c3001 	add	r3, ip, r1
    a124:	e0851001 	add	r1, r5, r1
    a128:	0a000005 	beq	a144 <memcpy+0xa0>
    a12c:	e7955204 	ldr	r5, [r5, r4, lsl #4]
    a130:	e2833008 	add	r3, r3, #8
    a134:	e78c5204 	str	r5, [ip, r4, lsl #4]
    a138:	e591c004 	ldr	ip, [r1, #4]
    a13c:	e2811008 	add	r1, r1, #8
    a140:	e503c004 	str	ip, [r3, #-4]
    a144:	e3120004 	tst	r2, #4
    a148:	1491c004 	ldrne	ip, [r1], #4
    a14c:	1483c004 	strne	ip, [r3], #4
    a150:	ea0000bb 	b	a444 <memcpy+0x3a0>
    a154:	e352001f 	cmp	r2, #31
    a158:	9a000075 	bls	a334 <memcpy+0x290>
    a15c:	e3560002 	cmp	r6, #2
    a160:	e5915000 	ldr	r5, [r1]
    a164:	e5d14000 	ldrb	r4, [r1]
    a168:	0a000028 	beq	a210 <memcpy+0x16c>
    a16c:	e3560003 	cmp	r6, #3
    a170:	0a00004c 	beq	a2a8 <memcpy+0x204>
    a174:	e5d1c001 	ldrb	ip, [r1, #1]
    a178:	e2816003 	add	r6, r1, #3
    a17c:	e5d11002 	ldrb	r1, [r1, #2]
    a180:	e5c34000 	strb	r4, [r3]
    a184:	e2834003 	add	r4, r3, #3
    a188:	e5c3c001 	strb	ip, [r3, #1]
    a18c:	e5c31002 	strb	r1, [r3, #2]
    a190:	e242c003 	sub	ip, r2, #3
    a194:	e1a01006 	mov	r1, r6
    a198:	e1a03004 	mov	r3, r4
    a19c:	e5917001 	ldr	r7, [r1, #1]
    a1a0:	e1a05c25 	lsr	r5, r5, #24
    a1a4:	e1855407 	orr	r5, r5, r7, lsl #8
    a1a8:	e5835000 	str	r5, [r3]
    a1ac:	e5915005 	ldr	r5, [r1, #5]
    a1b0:	e1a07c27 	lsr	r7, r7, #24
    a1b4:	e1877405 	orr	r7, r7, r5, lsl #8
    a1b8:	e5837004 	str	r7, [r3, #4]
    a1bc:	e5917009 	ldr	r7, [r1, #9]
    a1c0:	e1a05c25 	lsr	r5, r5, #24
    a1c4:	e1855407 	orr	r5, r5, r7, lsl #8
    a1c8:	e5835008 	str	r5, [r3, #8]
    a1cc:	e591500d 	ldr	r5, [r1, #13]
    a1d0:	e1a07c27 	lsr	r7, r7, #24
    a1d4:	e24cc010 	sub	ip, ip, #16
    a1d8:	e1877405 	orr	r7, r7, r5, lsl #8
    a1dc:	e35c0010 	cmp	ip, #16
    a1e0:	e583700c 	str	r7, [r3, #12]
    a1e4:	e2811010 	add	r1, r1, #16
    a1e8:	e2833010 	add	r3, r3, #16
    a1ec:	8affffea 	bhi	a19c <memcpy+0xf8>
    a1f0:	e242c014 	sub	ip, r2, #20
    a1f4:	e1a0c22c 	lsr	ip, ip, #4
    a1f8:	e28c3001 	add	r3, ip, #1
    a1fc:	e1a03203 	lsl	r3, r3, #4
    a200:	e0861003 	add	r1, r6, r3
    a204:	e2422013 	sub	r2, r2, #19
    a208:	e0843003 	add	r3, r4, r3
    a20c:	ea000047 	b	a330 <memcpy+0x28c>
    a210:	e1a0c003 	mov	ip, r3
    a214:	e2816002 	add	r6, r1, #2
    a218:	e5d11001 	ldrb	r1, [r1, #1]
    a21c:	e4cc4002 	strb	r4, [ip], #2
    a220:	e5c31001 	strb	r1, [r3, #1]
    a224:	e2424002 	sub	r4, r2, #2
    a228:	e1a01006 	mov	r1, r6
    a22c:	e1a0300c 	mov	r3, ip
    a230:	e5917002 	ldr	r7, [r1, #2]
    a234:	e1a05825 	lsr	r5, r5, #16
    a238:	e1855807 	orr	r5, r5, r7, lsl #16
    a23c:	e5835000 	str	r5, [r3]
    a240:	e5915006 	ldr	r5, [r1, #6]
    a244:	e1a07827 	lsr	r7, r7, #16
    a248:	e1877805 	orr	r7, r7, r5, lsl #16
    a24c:	e5837004 	str	r7, [r3, #4]
    a250:	e591700a 	ldr	r7, [r1, #10]
    a254:	e1a05825 	lsr	r5, r5, #16
    a258:	e1855807 	orr	r5, r5, r7, lsl #16
    a25c:	e5835008 	str	r5, [r3, #8]
    a260:	e591500e 	ldr	r5, [r1, #14]
    a264:	e1a07827 	lsr	r7, r7, #16
    a268:	e2444010 	sub	r4, r4, #16
    a26c:	e1877805 	orr	r7, r7, r5, lsl #16
    a270:	e3540011 	cmp	r4, #17
    a274:	e583700c 	str	r7, [r3, #12]
    a278:	e2811010 	add	r1, r1, #16
    a27c:	e2833010 	add	r3, r3, #16
    a280:	8affffea 	bhi	a230 <memcpy+0x18c>
    a284:	e2424014 	sub	r4, r2, #20
    a288:	e1a04224 	lsr	r4, r4, #4
    a28c:	e2843001 	add	r3, r4, #1
    a290:	e1a03203 	lsl	r3, r3, #4
    a294:	e2422012 	sub	r2, r2, #18
    a298:	e0861003 	add	r1, r6, r3
    a29c:	e0422204 	sub	r2, r2, r4, lsl #4
    a2a0:	e08c3003 	add	r3, ip, r3
    a2a4:	ea000022 	b	a334 <memcpy+0x290>
    a2a8:	e2836001 	add	r6, r3, #1
    a2ac:	e2811001 	add	r1, r1, #1
    a2b0:	e5c34000 	strb	r4, [r3]
    a2b4:	e1a0c001 	mov	ip, r1
    a2b8:	e2424001 	sub	r4, r2, #1
    a2bc:	e1a03006 	mov	r3, r6
    a2c0:	e59c7003 	ldr	r7, [ip, #3]
    a2c4:	e1a05425 	lsr	r5, r5, #8
    a2c8:	e1855c07 	orr	r5, r5, r7, lsl #24
    a2cc:	e5835000 	str	r5, [r3]
    a2d0:	e59c5007 	ldr	r5, [ip, #7]
    a2d4:	e1a07427 	lsr	r7, r7, #8
    a2d8:	e1877c05 	orr	r7, r7, r5, lsl #24
    a2dc:	e5837004 	str	r7, [r3, #4]
    a2e0:	e59c700b 	ldr	r7, [ip, #11]
    a2e4:	e1a05425 	lsr	r5, r5, #8
    a2e8:	e1855c07 	orr	r5, r5, r7, lsl #24
    a2ec:	e5835008 	str	r5, [r3, #8]
    a2f0:	e59c500f 	ldr	r5, [ip, #15]
    a2f4:	e1a07427 	lsr	r7, r7, #8
    a2f8:	e2444010 	sub	r4, r4, #16
    a2fc:	e1877c05 	orr	r7, r7, r5, lsl #24
    a300:	e3540012 	cmp	r4, #18
    a304:	e583700c 	str	r7, [r3, #12]
    a308:	e28cc010 	add	ip, ip, #16
    a30c:	e2833010 	add	r3, r3, #16
    a310:	8affffea 	bhi	a2c0 <memcpy+0x21c>
    a314:	e242c014 	sub	ip, r2, #20
    a318:	e1a0c22c 	lsr	ip, ip, #4
    a31c:	e28c3001 	add	r3, ip, #1
    a320:	e1a03203 	lsl	r3, r3, #4
    a324:	e0811003 	add	r1, r1, r3
    a328:	e2422011 	sub	r2, r2, #17
    a32c:	e0863003 	add	r3, r6, r3
    a330:	e042220c 	sub	r2, r2, ip, lsl #4
    a334:	e3120010 	tst	r2, #16
    a338:	0a000021 	beq	a3c4 <memcpy+0x320>
    a33c:	e5d1c000 	ldrb	ip, [r1]
    a340:	e2833010 	add	r3, r3, #16
    a344:	e543c010 	strb	ip, [r3, #-16]
    a348:	e5d1c001 	ldrb	ip, [r1, #1]
    a34c:	e2811010 	add	r1, r1, #16
    a350:	e543c00f 	strb	ip, [r3, #-15]
    a354:	e551c00e 	ldrb	ip, [r1, #-14]
    a358:	e543c00e 	strb	ip, [r3, #-14]
    a35c:	e551c00d 	ldrb	ip, [r1, #-13]
    a360:	e543c00d 	strb	ip, [r3, #-13]
    a364:	e551c00c 	ldrb	ip, [r1, #-12]
    a368:	e543c00c 	strb	ip, [r3, #-12]
    a36c:	e551c00b 	ldrb	ip, [r1, #-11]
    a370:	e543c00b 	strb	ip, [r3, #-11]
    a374:	e551c00a 	ldrb	ip, [r1, #-10]
    a378:	e543c00a 	strb	ip, [r3, #-10]
    a37c:	e551c009 	ldrb	ip, [r1, #-9]
    a380:	e543c009 	strb	ip, [r3, #-9]
    a384:	e551c008 	ldrb	ip, [r1, #-8]
    a388:	e543c008 	strb	ip, [r3, #-8]
    a38c:	e551c007 	ldrb	ip, [r1, #-7]
    a390:	e543c007 	strb	ip, [r3, #-7]
    a394:	e551c006 	ldrb	ip, [r1, #-6]
    a398:	e543c006 	strb	ip, [r3, #-6]
    a39c:	e551c005 	ldrb	ip, [r1, #-5]
    a3a0:	e543c005 	strb	ip, [r3, #-5]
    a3a4:	e551c004 	ldrb	ip, [r1, #-4]
    a3a8:	e543c004 	strb	ip, [r3, #-4]
    a3ac:	e551c003 	ldrb	ip, [r1, #-3]
    a3b0:	e543c003 	strb	ip, [r3, #-3]
    a3b4:	e551c002 	ldrb	ip, [r1, #-2]
    a3b8:	e543c002 	strb	ip, [r3, #-2]
    a3bc:	e551c001 	ldrb	ip, [r1, #-1]
    a3c0:	e543c001 	strb	ip, [r3, #-1]
    a3c4:	e3120008 	tst	r2, #8
    a3c8:	0a000011 	beq	a414 <memcpy+0x370>
    a3cc:	e5d1c000 	ldrb	ip, [r1]
    a3d0:	e2833008 	add	r3, r3, #8
    a3d4:	e543c008 	strb	ip, [r3, #-8]
    a3d8:	e5d1c001 	ldrb	ip, [r1, #1]
    a3dc:	e2811008 	add	r1, r1, #8
    a3e0:	e543c007 	strb	ip, [r3, #-7]
    a3e4:	e551c006 	ldrb	ip, [r1, #-6]
    a3e8:	e543c006 	strb	ip, [r3, #-6]
    a3ec:	e551c005 	ldrb	ip, [r1, #-5]
    a3f0:	e543c005 	strb	ip, [r3, #-5]
    a3f4:	e551c004 	ldrb	ip, [r1, #-4]
    a3f8:	e543c004 	strb	ip, [r3, #-4]
    a3fc:	e551c003 	ldrb	ip, [r1, #-3]
    a400:	e543c003 	strb	ip, [r3, #-3]
    a404:	e551c002 	ldrb	ip, [r1, #-2]
    a408:	e543c002 	strb	ip, [r3, #-2]
    a40c:	e551c001 	ldrb	ip, [r1, #-1]
    a410:	e543c001 	strb	ip, [r3, #-1]
    a414:	e3120004 	tst	r2, #4
    a418:	0a000009 	beq	a444 <memcpy+0x3a0>
    a41c:	e5d1c000 	ldrb	ip, [r1]
    a420:	e2833004 	add	r3, r3, #4
    a424:	e543c004 	strb	ip, [r3, #-4]
    a428:	e5d1c001 	ldrb	ip, [r1, #1]
    a42c:	e2811004 	add	r1, r1, #4
    a430:	e543c003 	strb	ip, [r3, #-3]
    a434:	e551c002 	ldrb	ip, [r1, #-2]
    a438:	e543c002 	strb	ip, [r3, #-2]
    a43c:	e551c001 	ldrb	ip, [r1, #-1]
    a440:	e543c001 	strb	ip, [r3, #-1]
    a444:	e3120002 	tst	r2, #2
    a448:	0a000007 	beq	a46c <memcpy+0x3c8>
    a44c:	e1a04001 	mov	r4, r1
    a450:	e4d45002 	ldrb	r5, [r4], #2
    a454:	e1a0c003 	mov	ip, r3
    a458:	e4cc5002 	strb	r5, [ip], #2
    a45c:	e5d11001 	ldrb	r1, [r1, #1]
    a460:	e5c31001 	strb	r1, [r3, #1]
    a464:	e1a01004 	mov	r1, r4
    a468:	e1a0300c 	mov	r3, ip
    a46c:	e3120001 	tst	r2, #1
    a470:	15d12000 	ldrbne	r2, [r1]
    a474:	15c32000 	strbne	r2, [r3]
    a478:	e8bd80f0 	pop	{r4, r5, r6, r7, pc}

0000a47c <memchr>:
    a47c:	e92d4030 	push	{r4, r5, lr}
    a480:	e6ef1071 	uxtb	r1, r1
    a484:	e3100003 	tst	r0, #3
    a488:	e1a03000 	mov	r3, r0
    a48c:	0a000007 	beq	a4b0 <memchr+0x34>
    a490:	e3520000 	cmp	r2, #0
    a494:	0a000024 	beq	a52c <memchr+0xb0>
    a498:	e5d3c000 	ldrb	ip, [r3]
    a49c:	e2800001 	add	r0, r0, #1
    a4a0:	e15c0001 	cmp	ip, r1
    a4a4:	0a000003 	beq	a4b8 <memchr+0x3c>
    a4a8:	e2422001 	sub	r2, r2, #1
    a4ac:	eafffff4 	b	a484 <memchr+0x8>
    a4b0:	e3520000 	cmp	r2, #0
    a4b4:	0a00001c 	beq	a52c <memchr+0xb0>
    a4b8:	e5d30000 	ldrb	r0, [r3]
    a4bc:	e1500001 	cmp	r0, r1
    a4c0:	10810401 	addne	r0, r1, r1, lsl #8
    a4c4:	10805800 	addne	r5, r0, r0, lsl #16
    a4c8:	1a00000b 	bne	a4fc <memchr+0x80>
    a4cc:	ea000018 	b	a534 <memchr+0xb8>
    a4d0:	e5904000 	ldr	r4, [r0]
    a4d4:	e59fc060 	ldr	ip, [pc, #96]	; a53c <memchr+0xc0>
    a4d8:	e0254004 	eor	r4, r5, r4
    a4dc:	e084c00c 	add	ip, r4, ip
    a4e0:	e1cc4004 	bic	r4, ip, r4
    a4e4:	e59fc054 	ldr	ip, [pc, #84]	; a540 <memchr+0xc4>
    a4e8:	e2833004 	add	r3, r3, #4
    a4ec:	e004c00c 	and	ip, r4, ip
    a4f0:	e35c0000 	cmp	ip, #0
    a4f4:	1a000003 	bne	a508 <memchr+0x8c>
    a4f8:	e2422004 	sub	r2, r2, #4
    a4fc:	e3520003 	cmp	r2, #3
    a500:	e1a00003 	mov	r0, r3
    a504:	8afffff1 	bhi	a4d0 <memchr+0x54>
    a508:	e0802002 	add	r2, r0, r2
    a50c:	ea000003 	b	a520 <memchr+0xa4>
    a510:	e5d3c000 	ldrb	ip, [r3]
    a514:	e2800001 	add	r0, r0, #1
    a518:	e15c0001 	cmp	ip, r1
    a51c:	0a000004 	beq	a534 <memchr+0xb8>
    a520:	e1500002 	cmp	r0, r2
    a524:	e1a03000 	mov	r3, r0
    a528:	1afffff8 	bne	a510 <memchr+0x94>
    a52c:	e3a00000 	mov	r0, #0
    a530:	e8bd8030 	pop	{r4, r5, pc}
    a534:	e1a00003 	mov	r0, r3
    a538:	e8bd8030 	pop	{r4, r5, pc}
    a53c:	fefefeff 	mrc2	14, 7, pc, cr14, cr15, {7}
    a540:	80808080 	addhi	r8, r0, r0, lsl #1

0000a544 <__errno_location>:
    a544:	e59f0000 	ldr	r0, [pc]	; a54c <__errno_location+0x8>
    a548:	e12fff1e 	bx	lr
    a54c:	00014f80 	andeq	r4, r1, r0, lsl #31

0000a550 <strerror>:
    a550:	e59f1048 	ldr	r1, [pc, #72]	; a5a0 <strerror+0x50>
    a554:	e3a03000 	mov	r3, #0
    a558:	e7d32001 	ldrb	r2, [r3, r1]
    a55c:	e3520000 	cmp	r2, #0
    a560:	1a000001 	bne	a56c <strerror+0x1c>
    a564:	e59f0038 	ldr	r0, [pc, #56]	; a5a4 <strerror+0x54>
    a568:	ea000009 	b	a594 <strerror+0x44>
    a56c:	e1520000 	cmp	r2, r0
    a570:	0afffffb 	beq	a564 <strerror+0x14>
    a574:	e2833001 	add	r3, r3, #1
    a578:	eafffff6 	b	a558 <strerror+0x8>
    a57c:	e1a02000 	mov	r2, r0
    a580:	e5d21000 	ldrb	r1, [r2]
    a584:	e2800001 	add	r0, r0, #1
    a588:	e3510000 	cmp	r1, #0
    a58c:	1afffffa 	bne	a57c <strerror+0x2c>
    a590:	e2433001 	sub	r3, r3, #1
    a594:	e3530000 	cmp	r3, #0
    a598:	1afffff7 	bne	a57c <strerror+0x2c>
    a59c:	e12fff1e 	bx	lr
    a5a0:	0000ca84 	andeq	ip, r0, r4, lsl #21
    a5a4:	0000c378 	andeq	ip, r0, r8, ror r3

0000a5a8 <frexpl>:
    a5a8:	eaffffff 	b	a5ac <frexp>

0000a5ac <frexp>:
    a5ac:	e92d43f8 	push	{r3, r4, r5, r6, r7, r8, r9, lr}
    a5b0:	e1a09081 	lsl	r9, r1, #1
    a5b4:	e1b09aa9 	lsrs	r9, r9, #21
    a5b8:	e1a04000 	mov	r4, r0
    a5bc:	e1a05001 	mov	r5, r1
    a5c0:	e1a08002 	mov	r8, r2
    a5c4:	e1a06000 	mov	r6, r0
    a5c8:	e1a07001 	mov	r7, r1
    a5cc:	1a000010 	bne	a614 <frexp+0x68>
    a5d0:	e3a02000 	mov	r2, #0
    a5d4:	e3a03000 	mov	r3, #0
    a5d8:	eb0003f6 	bl	b5b8 <__aeabi_dcmpeq>
    a5dc:	e3500000 	cmp	r0, #0
    a5e0:	15889000 	strne	r9, [r8]
    a5e4:	1a000019 	bne	a650 <frexp+0xa4>
    a5e8:	e59f306c 	ldr	r3, [pc, #108]	; a65c <frexp+0xb0>
    a5ec:	e1a00004 	mov	r0, r4
    a5f0:	e1a01005 	mov	r1, r5
    a5f4:	e3a02000 	mov	r2, #0
    a5f8:	eb000294 	bl	b050 <__aeabi_dmul>
    a5fc:	e1a02008 	mov	r2, r8
    a600:	ebffffe9 	bl	a5ac <frexp>
    a604:	e5983000 	ldr	r3, [r8]
    a608:	e2433040 	sub	r3, r3, #64	; 0x40
    a60c:	e5883000 	str	r3, [r8]
    a610:	e8bd83f8 	pop	{r3, r4, r5, r6, r7, r8, r9, pc}
    a614:	e59f3044 	ldr	r3, [pc, #68]	; a660 <frexp+0xb4>
    a618:	e1590003 	cmp	r9, r3
    a61c:	0a00000b 	beq	a650 <frexp+0xa4>
    a620:	e2499fff 	sub	r9, r9, #1020	; 0x3fc
    a624:	e59f1038 	ldr	r1, [pc, #56]	; a664 <frexp+0xb8>
    a628:	e2499002 	sub	r9, r9, #2
    a62c:	e59f3034 	ldr	r3, [pc, #52]	; a668 <frexp+0xbc>
    a630:	e3e00000 	mvn	r0, #0
    a634:	e5829000 	str	r9, [r2]
    a638:	e0000004 	and	r0, r0, r4
    a63c:	e0011005 	and	r1, r1, r5
    a640:	e3a02000 	mov	r2, #0
    a644:	e1800002 	orr	r0, r0, r2
    a648:	e1811003 	orr	r1, r1, r3
    a64c:	e8bd83f8 	pop	{r3, r4, r5, r6, r7, r8, r9, pc}
    a650:	e1a00004 	mov	r0, r4
    a654:	e1a01005 	mov	r1, r5
    a658:	e8bd83f8 	pop	{r3, r4, r5, r6, r7, r8, r9, pc}
    a65c:	43f00000 	mvnsmi	r0, #0
    a660:	000007ff 	strdeq	r0, [r0], -pc	; <UNPREDICTABLE>
    a664:	800fffff 	strdhi	pc, [pc], -pc	; <UNPREDICTABLE>
    a668:	3fe00000 	svccc	0x00e00000

0000a66c <wctomb>:
    a66c:	e3500000 	cmp	r0, #0
    a670:	012fff1e 	bxeq	lr
    a674:	e3a02000 	mov	r2, #0
    a678:	eaffffff 	b	a67c <wcrtomb>

0000a67c <wcrtomb>:
    a67c:	e3500000 	cmp	r0, #0
    a680:	e92d4008 	push	{r3, lr}
    a684:	0a00003d 	beq	a780 <wcrtomb+0x104>
    a688:	e351007f 	cmp	r1, #127	; 0x7f
    a68c:	95c01000 	strbls	r1, [r0]
    a690:	9a00003a 	bls	a780 <wcrtomb+0x104>
    a694:	e3510b02 	cmp	r1, #2048	; 0x800
    a698:	2a000009 	bcs	a6c4 <wcrtomb+0x48>
    a69c:	e1a03321 	lsr	r3, r1, #6
    a6a0:	e201103f 	and	r1, r1, #63	; 0x3f
    a6a4:	e1e03d03 	mvn	r3, r3, lsl #26
    a6a8:	e1e01c81 	mvn	r1, r1, lsl #25
    a6ac:	e1e03d23 	mvn	r3, r3, lsr #26
    a6b0:	e1e01ca1 	mvn	r1, r1, lsr #25
    a6b4:	e5c03000 	strb	r3, [r0]
    a6b8:	e5c01001 	strb	r1, [r0, #1]
    a6bc:	e3a00002 	mov	r0, #2
    a6c0:	e8bd8008 	pop	{r3, pc}
    a6c4:	e2413a0e 	sub	r3, r1, #57344	; 0xe000
    a6c8:	e3510b36 	cmp	r1, #55296	; 0xd800
    a6cc:	23530a02 	cmpcs	r3, #8192	; 0x2000
    a6d0:	2a00000e 	bcs	a710 <wcrtomb+0x94>
    a6d4:	e1a03621 	lsr	r3, r1, #12
    a6d8:	e1e03d83 	mvn	r3, r3, lsl #27
    a6dc:	e1e03da3 	mvn	r3, r3, lsr #27
    a6e0:	e5c03000 	strb	r3, [r0]
    a6e4:	e1a03321 	lsr	r3, r1, #6
    a6e8:	e203303f 	and	r3, r3, #63	; 0x3f
    a6ec:	e201103f 	and	r1, r1, #63	; 0x3f
    a6f0:	e1e03c83 	mvn	r3, r3, lsl #25
    a6f4:	e1e01c81 	mvn	r1, r1, lsl #25
    a6f8:	e1e03ca3 	mvn	r3, r3, lsr #25
    a6fc:	e1e01ca1 	mvn	r1, r1, lsr #25
    a700:	e5c03001 	strb	r3, [r0, #1]
    a704:	e5c01002 	strb	r1, [r0, #2]
    a708:	e3a00003 	mov	r0, #3
    a70c:	e8bd8008 	pop	{r3, pc}
    a710:	e2413801 	sub	r3, r1, #65536	; 0x10000
    a714:	e3530601 	cmp	r3, #1048576	; 0x100000
    a718:	2a000013 	bcs	a76c <wcrtomb+0xf0>
    a71c:	e1a03921 	lsr	r3, r1, #18
    a720:	e1e03e03 	mvn	r3, r3, lsl #28
    a724:	e1e03e23 	mvn	r3, r3, lsr #28
    a728:	e5c03000 	strb	r3, [r0]
    a72c:	e1a03621 	lsr	r3, r1, #12
    a730:	e203303f 	and	r3, r3, #63	; 0x3f
    a734:	e1e03c83 	mvn	r3, r3, lsl #25
    a738:	e1e03ca3 	mvn	r3, r3, lsr #25
    a73c:	e5c03001 	strb	r3, [r0, #1]
    a740:	e1a03321 	lsr	r3, r1, #6
    a744:	e203303f 	and	r3, r3, #63	; 0x3f
    a748:	e201103f 	and	r1, r1, #63	; 0x3f
    a74c:	e1e03c83 	mvn	r3, r3, lsl #25
    a750:	e1e01c81 	mvn	r1, r1, lsl #25
    a754:	e1e03ca3 	mvn	r3, r3, lsr #25
    a758:	e1e01ca1 	mvn	r1, r1, lsr #25
    a75c:	e5c03002 	strb	r3, [r0, #2]
    a760:	e5c01003 	strb	r1, [r0, #3]
    a764:	e3a00004 	mov	r0, #4
    a768:	e8bd8008 	pop	{r3, pc}
    a76c:	ebffff74 	bl	a544 <__errno_location>
    a770:	e3a03054 	mov	r3, #84	; 0x54
    a774:	e5803000 	str	r3, [r0]
    a778:	e3e00000 	mvn	r0, #0
    a77c:	e8bd8008 	pop	{r3, pc}
    a780:	e3a00001 	mov	r0, #1
    a784:	e8bd8008 	pop	{r3, pc}

0000a788 <__syscall>:
    a788:	e1a0c00d 	mov	ip, sp
    a78c:	e92d00f0 	push	{r4, r5, r6, r7}
    a790:	e1a07000 	mov	r7, r0
    a794:	e1a00001 	mov	r0, r1
    a798:	e1a01002 	mov	r1, r2
    a79c:	e1a02003 	mov	r2, r3
    a7a0:	e89c0078 	ldm	ip, {r3, r4, r5, r6}
    a7a4:	ef000000 	svc	0x00000000
    a7a8:	e8bd00f0 	pop	{r4, r5, r6, r7}
    a7ac:	e31e0001 	tst	lr, #1
    a7b0:	01a0f00e 	moveq	pc, lr
    a7b4:	e12fff1e 	bx	lr

0000a7b8 <__syscall_ret>:
    a7b8:	e3700a01 	cmn	r0, #4096	; 0x1000
    a7bc:	e92d4010 	push	{r4, lr}
    a7c0:	e1a04000 	mov	r4, r0
    a7c4:	9a000004 	bls	a7dc <__syscall_ret+0x24>
    a7c8:	ebffff5d 	bl	a544 <__errno_location>
    a7cc:	e2644000 	rsb	r4, r4, #0
    a7d0:	e5804000 	str	r4, [r0]
    a7d4:	e3e00000 	mvn	r0, #0
    a7d8:	e8bd8010 	pop	{r4, pc}
    a7dc:	e8bd8010 	pop	{r4, pc}

0000a7e0 <__stdio_write>:
    a7e0:	e92d43f0 	push	{r4, r5, r6, r7, r8, r9, lr}
    a7e4:	e590301c 	ldr	r3, [r0, #28]
    a7e8:	e5909014 	ldr	r9, [r0, #20]
    a7ec:	e24dd014 	sub	sp, sp, #20
    a7f0:	e0639009 	rsb	r9, r3, r9
    a7f4:	e58d9004 	str	r9, [sp, #4]
    a7f8:	e1a04000 	mov	r4, r0
    a7fc:	e1a08002 	mov	r8, r2
    a800:	e58d3000 	str	r3, [sp]
    a804:	e58d1008 	str	r1, [sp, #8]
    a808:	e58d200c 	str	r2, [sp, #12]
    a80c:	e0899002 	add	r9, r9, r2
    a810:	e3a06002 	mov	r6, #2
    a814:	e1a0500d 	mov	r5, sp
    a818:	e3a07092 	mov	r7, #146	; 0x92
    a81c:	e594003c 	ldr	r0, [r4, #60]	; 0x3c
    a820:	e1a01005 	mov	r1, r5
    a824:	e1a02006 	mov	r2, r6
    a828:	ef000000 	svc	0x00000000
    a82c:	ebffffe1 	bl	a7b8 <__syscall_ret>
    a830:	e1500009 	cmp	r0, r9
    a834:	1a000007 	bne	a858 <__stdio_write+0x78>
    a838:	e594302c 	ldr	r3, [r4, #44]	; 0x2c
    a83c:	e5942030 	ldr	r2, [r4, #48]	; 0x30
    a840:	e584301c 	str	r3, [r4, #28]
    a844:	e0832002 	add	r2, r3, r2
    a848:	e5842010 	str	r2, [r4, #16]
    a84c:	e5843014 	str	r3, [r4, #20]
    a850:	e1a00008 	mov	r0, r8
    a854:	ea000022 	b	a8e4 <__stdio_write+0x104>
    a858:	e3500000 	cmp	r0, #0
    a85c:	aa00000a 	bge	a88c <__stdio_write+0xac>
    a860:	e5943000 	ldr	r3, [r4]
    a864:	e3a00000 	mov	r0, #0
    a868:	e3833020 	orr	r3, r3, #32
    a86c:	e3560002 	cmp	r6, #2
    a870:	e5840010 	str	r0, [r4, #16]
    a874:	e584001c 	str	r0, [r4, #28]
    a878:	e5840014 	str	r0, [r4, #20]
    a87c:	e5843000 	str	r3, [r4]
    a880:	15950004 	ldrne	r0, [r5, #4]
    a884:	10600008 	rsbne	r0, r0, r8
    a888:	ea000015 	b	a8e4 <__stdio_write+0x104>
    a88c:	e5953004 	ldr	r3, [r5, #4]
    a890:	e0609009 	rsb	r9, r0, r9
    a894:	e1500003 	cmp	r0, r3
    a898:	9a000006 	bls	a8b8 <__stdio_write+0xd8>
    a89c:	e594202c 	ldr	r2, [r4, #44]	; 0x2c
    a8a0:	e0630000 	rsb	r0, r3, r0
    a8a4:	e584201c 	str	r2, [r4, #28]
    a8a8:	e5842014 	str	r2, [r4, #20]
    a8ac:	e2855008 	add	r5, r5, #8
    a8b0:	e2466001 	sub	r6, r6, #1
    a8b4:	ea000003 	b	a8c8 <__stdio_write+0xe8>
    a8b8:	e3560002 	cmp	r6, #2
    a8bc:	0594301c 	ldreq	r3, [r4, #28]
    a8c0:	00833000 	addeq	r3, r3, r0
    a8c4:	0584301c 	streq	r3, [r4, #28]
    a8c8:	e5953000 	ldr	r3, [r5]
    a8cc:	e0833000 	add	r3, r3, r0
    a8d0:	e5853000 	str	r3, [r5]
    a8d4:	e5953004 	ldr	r3, [r5, #4]
    a8d8:	e0600003 	rsb	r0, r0, r3
    a8dc:	e5850004 	str	r0, [r5, #4]
    a8e0:	eaffffcc 	b	a818 <__stdio_write+0x38>
    a8e4:	e28dd014 	add	sp, sp, #20
    a8e8:	e8bd83f0 	pop	{r4, r5, r6, r7, r8, r9, pc}

0000a8ec <close_file>:
    a8ec:	e92d4013 	push	{r0, r1, r4, lr}
    a8f0:	e2504000 	subs	r4, r0, #0
    a8f4:	0a000016 	beq	a954 <close_file+0x68>
    a8f8:	e594304c 	ldr	r3, [r4, #76]	; 0x4c
    a8fc:	e3530000 	cmp	r3, #0
    a900:	ba000000 	blt	a908 <close_file+0x1c>
    a904:	ebfffde4 	bl	a09c <__lockfile>
    a908:	e5942014 	ldr	r2, [r4, #20]
    a90c:	e594301c 	ldr	r3, [r4, #28]
    a910:	e1520003 	cmp	r2, r3
    a914:	9a000004 	bls	a92c <close_file+0x40>
    a918:	e3a01000 	mov	r1, #0
    a91c:	e5943024 	ldr	r3, [r4, #36]	; 0x24
    a920:	e1a00004 	mov	r0, r4
    a924:	e1a02001 	mov	r2, r1
    a928:	e12fff33 	blx	r3
    a92c:	e994000c 	ldmib	r4, {r2, r3}
    a930:	e1520003 	cmp	r2, r3
    a934:	2a000006 	bcs	a954 <close_file+0x68>
    a938:	e0632002 	rsb	r2, r3, r2
    a93c:	e3a03001 	mov	r3, #1
    a940:	e58d3000 	str	r3, [sp]
    a944:	e5941028 	ldr	r1, [r4, #40]	; 0x28
    a948:	e1a00004 	mov	r0, r4
    a94c:	e1a03fc2 	asr	r3, r2, #31
    a950:	e12fff31 	blx	r1
    a954:	e28dd008 	add	sp, sp, #8
    a958:	e8bd8010 	pop	{r4, pc}

0000a95c <__stdio_exit>:
    a95c:	e92d4010 	push	{r4, lr}
    a960:	e59f003c 	ldr	r0, [pc, #60]	; a9a4 <__stdio_exit+0x48>
    a964:	eb000012 	bl	a9b4 <__lock>
    a968:	e59f3038 	ldr	r3, [pc, #56]	; a9a8 <__stdio_exit+0x4c>
    a96c:	e5934018 	ldr	r4, [r3, #24]
    a970:	e3540000 	cmp	r4, #0
    a974:	0a000003 	beq	a988 <__stdio_exit+0x2c>
    a978:	e1a00004 	mov	r0, r4
    a97c:	ebffffda 	bl	a8ec <close_file>
    a980:	e5944038 	ldr	r4, [r4, #56]	; 0x38
    a984:	eafffff9 	b	a970 <__stdio_exit+0x14>
    a988:	e59f301c 	ldr	r3, [pc, #28]	; a9ac <__stdio_exit+0x50>
    a98c:	e5930000 	ldr	r0, [r3]
    a990:	ebffffd5 	bl	a8ec <close_file>
    a994:	e8bd4010 	pop	{r4, lr}
    a998:	e59f3010 	ldr	r3, [pc, #16]	; a9b0 <__stdio_exit+0x54>
    a99c:	e5930000 	ldr	r0, [r3]
    a9a0:	eaffffd1 	b	a8ec <close_file>
    a9a4:	00014fa4 	andeq	r4, r1, r4, lsr #31
    a9a8:	00014f88 	andeq	r4, r1, r8, lsl #31
    a9ac:	0000cadc 	ldrdeq	ip, [r0], -ip	; <UNPREDICTABLE>
    a9b0:	0000c36c 	andeq	ip, r0, ip, ror #6

0000a9b4 <__lock>:
    a9b4:	e12fff1e 	bx	lr

0000a9b8 <__aeabi_uidiv>:
    a9b8:	e2512001 	subs	r2, r1, #1
    a9bc:	012fff1e 	bxeq	lr
    a9c0:	3a000036 	bcc	aaa0 <__aeabi_uidiv+0xe8>
    a9c4:	e1500001 	cmp	r0, r1
    a9c8:	9a000022 	bls	aa58 <__aeabi_uidiv+0xa0>
    a9cc:	e1110002 	tst	r1, r2
    a9d0:	0a000023 	beq	aa64 <__aeabi_uidiv+0xac>
    a9d4:	e311020e 	tst	r1, #-536870912	; 0xe0000000
    a9d8:	01a01181 	lsleq	r1, r1, #3
    a9dc:	03a03008 	moveq	r3, #8
    a9e0:	13a03001 	movne	r3, #1
    a9e4:	e3510201 	cmp	r1, #268435456	; 0x10000000
    a9e8:	31510000 	cmpcc	r1, r0
    a9ec:	31a01201 	lslcc	r1, r1, #4
    a9f0:	31a03203 	lslcc	r3, r3, #4
    a9f4:	3afffffa 	bcc	a9e4 <__aeabi_uidiv+0x2c>
    a9f8:	e3510102 	cmp	r1, #-2147483648	; 0x80000000
    a9fc:	31510000 	cmpcc	r1, r0
    aa00:	31a01081 	lslcc	r1, r1, #1
    aa04:	31a03083 	lslcc	r3, r3, #1
    aa08:	3afffffa 	bcc	a9f8 <__aeabi_uidiv+0x40>
    aa0c:	e3a02000 	mov	r2, #0
    aa10:	e1500001 	cmp	r0, r1
    aa14:	20400001 	subcs	r0, r0, r1
    aa18:	21822003 	orrcs	r2, r2, r3
    aa1c:	e15000a1 	cmp	r0, r1, lsr #1
    aa20:	204000a1 	subcs	r0, r0, r1, lsr #1
    aa24:	218220a3 	orrcs	r2, r2, r3, lsr #1
    aa28:	e1500121 	cmp	r0, r1, lsr #2
    aa2c:	20400121 	subcs	r0, r0, r1, lsr #2
    aa30:	21822123 	orrcs	r2, r2, r3, lsr #2
    aa34:	e15001a1 	cmp	r0, r1, lsr #3
    aa38:	204001a1 	subcs	r0, r0, r1, lsr #3
    aa3c:	218221a3 	orrcs	r2, r2, r3, lsr #3
    aa40:	e3500000 	cmp	r0, #0
    aa44:	11b03223 	lsrsne	r3, r3, #4
    aa48:	11a01221 	lsrne	r1, r1, #4
    aa4c:	1affffef 	bne	aa10 <__aeabi_uidiv+0x58>
    aa50:	e1a00002 	mov	r0, r2
    aa54:	e12fff1e 	bx	lr
    aa58:	03a00001 	moveq	r0, #1
    aa5c:	13a00000 	movne	r0, #0
    aa60:	e12fff1e 	bx	lr
    aa64:	e3510801 	cmp	r1, #65536	; 0x10000
    aa68:	21a01821 	lsrcs	r1, r1, #16
    aa6c:	23a02010 	movcs	r2, #16
    aa70:	33a02000 	movcc	r2, #0
    aa74:	e3510c01 	cmp	r1, #256	; 0x100
    aa78:	21a01421 	lsrcs	r1, r1, #8
    aa7c:	22822008 	addcs	r2, r2, #8
    aa80:	e3510010 	cmp	r1, #16
    aa84:	21a01221 	lsrcs	r1, r1, #4
    aa88:	22822004 	addcs	r2, r2, #4
    aa8c:	e3510004 	cmp	r1, #4
    aa90:	82822003 	addhi	r2, r2, #3
    aa94:	908220a1 	addls	r2, r2, r1, lsr #1
    aa98:	e1a00230 	lsr	r0, r0, r2
    aa9c:	e12fff1e 	bx	lr
    aaa0:	e3500000 	cmp	r0, #0
    aaa4:	13e00000 	mvnne	r0, #0
    aaa8:	ea000059 	b	ac14 <__aeabi_idiv0>

0000aaac <__aeabi_uidivmod>:
    aaac:	e3510000 	cmp	r1, #0
    aab0:	0afffffa 	beq	aaa0 <__aeabi_uidiv+0xe8>
    aab4:	e92d4003 	push	{r0, r1, lr}
    aab8:	ebffffbe 	bl	a9b8 <__aeabi_uidiv>
    aabc:	e8bd4006 	pop	{r1, r2, lr}
    aac0:	e0030092 	mul	r3, r2, r0
    aac4:	e0411003 	sub	r1, r1, r3
    aac8:	e12fff1e 	bx	lr

0000aacc <__aeabi_idiv>:
    aacc:	e3510000 	cmp	r1, #0
    aad0:	0a000043 	beq	abe4 <.divsi3_skip_div0_test+0x110>

0000aad4 <.divsi3_skip_div0_test>:
    aad4:	e020c001 	eor	ip, r0, r1
    aad8:	42611000 	rsbmi	r1, r1, #0
    aadc:	e2512001 	subs	r2, r1, #1
    aae0:	0a000027 	beq	ab84 <.divsi3_skip_div0_test+0xb0>
    aae4:	e1b03000 	movs	r3, r0
    aae8:	42603000 	rsbmi	r3, r0, #0
    aaec:	e1530001 	cmp	r3, r1
    aaf0:	9a000026 	bls	ab90 <.divsi3_skip_div0_test+0xbc>
    aaf4:	e1110002 	tst	r1, r2
    aaf8:	0a000028 	beq	aba0 <.divsi3_skip_div0_test+0xcc>
    aafc:	e311020e 	tst	r1, #-536870912	; 0xe0000000
    ab00:	01a01181 	lsleq	r1, r1, #3
    ab04:	03a02008 	moveq	r2, #8
    ab08:	13a02001 	movne	r2, #1
    ab0c:	e3510201 	cmp	r1, #268435456	; 0x10000000
    ab10:	31510003 	cmpcc	r1, r3
    ab14:	31a01201 	lslcc	r1, r1, #4
    ab18:	31a02202 	lslcc	r2, r2, #4
    ab1c:	3afffffa 	bcc	ab0c <.divsi3_skip_div0_test+0x38>
    ab20:	e3510102 	cmp	r1, #-2147483648	; 0x80000000
    ab24:	31510003 	cmpcc	r1, r3
    ab28:	31a01081 	lslcc	r1, r1, #1
    ab2c:	31a02082 	lslcc	r2, r2, #1
    ab30:	3afffffa 	bcc	ab20 <.divsi3_skip_div0_test+0x4c>
    ab34:	e3a00000 	mov	r0, #0
    ab38:	e1530001 	cmp	r3, r1
    ab3c:	20433001 	subcs	r3, r3, r1
    ab40:	21800002 	orrcs	r0, r0, r2
    ab44:	e15300a1 	cmp	r3, r1, lsr #1
    ab48:	204330a1 	subcs	r3, r3, r1, lsr #1
    ab4c:	218000a2 	orrcs	r0, r0, r2, lsr #1
    ab50:	e1530121 	cmp	r3, r1, lsr #2
    ab54:	20433121 	subcs	r3, r3, r1, lsr #2
    ab58:	21800122 	orrcs	r0, r0, r2, lsr #2
    ab5c:	e15301a1 	cmp	r3, r1, lsr #3
    ab60:	204331a1 	subcs	r3, r3, r1, lsr #3
    ab64:	218001a2 	orrcs	r0, r0, r2, lsr #3
    ab68:	e3530000 	cmp	r3, #0
    ab6c:	11b02222 	lsrsne	r2, r2, #4
    ab70:	11a01221 	lsrne	r1, r1, #4
    ab74:	1affffef 	bne	ab38 <.divsi3_skip_div0_test+0x64>
    ab78:	e35c0000 	cmp	ip, #0
    ab7c:	42600000 	rsbmi	r0, r0, #0
    ab80:	e12fff1e 	bx	lr
    ab84:	e13c0000 	teq	ip, r0
    ab88:	42600000 	rsbmi	r0, r0, #0
    ab8c:	e12fff1e 	bx	lr
    ab90:	33a00000 	movcc	r0, #0
    ab94:	01a00fcc 	asreq	r0, ip, #31
    ab98:	03800001 	orreq	r0, r0, #1
    ab9c:	e12fff1e 	bx	lr
    aba0:	e3510801 	cmp	r1, #65536	; 0x10000
    aba4:	21a01821 	lsrcs	r1, r1, #16
    aba8:	23a02010 	movcs	r2, #16
    abac:	33a02000 	movcc	r2, #0
    abb0:	e3510c01 	cmp	r1, #256	; 0x100
    abb4:	21a01421 	lsrcs	r1, r1, #8
    abb8:	22822008 	addcs	r2, r2, #8
    abbc:	e3510010 	cmp	r1, #16
    abc0:	21a01221 	lsrcs	r1, r1, #4
    abc4:	22822004 	addcs	r2, r2, #4
    abc8:	e3510004 	cmp	r1, #4
    abcc:	82822003 	addhi	r2, r2, #3
    abd0:	908220a1 	addls	r2, r2, r1, lsr #1
    abd4:	e35c0000 	cmp	ip, #0
    abd8:	e1a00233 	lsr	r0, r3, r2
    abdc:	42600000 	rsbmi	r0, r0, #0
    abe0:	e12fff1e 	bx	lr
    abe4:	e3500000 	cmp	r0, #0
    abe8:	c3e00102 	mvngt	r0, #-2147483648	; 0x80000000
    abec:	b3a00102 	movlt	r0, #-2147483648	; 0x80000000
    abf0:	ea000007 	b	ac14 <__aeabi_idiv0>

0000abf4 <__aeabi_idivmod>:
    abf4:	e3510000 	cmp	r1, #0
    abf8:	0afffff9 	beq	abe4 <.divsi3_skip_div0_test+0x110>
    abfc:	e92d4003 	push	{r0, r1, lr}
    ac00:	ebffffb3 	bl	aad4 <.divsi3_skip_div0_test>
    ac04:	e8bd4006 	pop	{r1, r2, lr}
    ac08:	e0030092 	mul	r3, r2, r0
    ac0c:	e0411003 	sub	r1, r1, r3
    ac10:	e12fff1e 	bx	lr

0000ac14 <__aeabi_idiv0>:
    ac14:	e12fff1e 	bx	lr

0000ac18 <__aeabi_llsl>:
    ac18:	e2523020 	subs	r3, r2, #32
    ac1c:	e262c020 	rsb	ip, r2, #32
    ac20:	41a01211 	lslmi	r1, r1, r2
    ac24:	51a01310 	lslpl	r1, r0, r3
    ac28:	41811c30 	orrmi	r1, r1, r0, lsr ip
    ac2c:	e1a00210 	lsl	r0, r0, r2
    ac30:	e12fff1e 	bx	lr

0000ac34 <__aeabi_drsub>:
    ac34:	e2211102 	eor	r1, r1, #-2147483648	; 0x80000000
    ac38:	ea000000 	b	ac40 <__adddf3>

0000ac3c <__aeabi_dsub>:
    ac3c:	e2233102 	eor	r3, r3, #-2147483648	; 0x80000000

0000ac40 <__adddf3>:
    ac40:	e92d4030 	push	{r4, r5, lr}
    ac44:	e1a04081 	lsl	r4, r1, #1
    ac48:	e1a05083 	lsl	r5, r3, #1
    ac4c:	e1340005 	teq	r4, r5
    ac50:	01300002 	teqeq	r0, r2
    ac54:	1194c000 	orrsne	ip, r4, r0
    ac58:	1195c002 	orrsne	ip, r5, r2
    ac5c:	11f0cac4 	mvnsne	ip, r4, asr #21
    ac60:	11f0cac5 	mvnsne	ip, r5, asr #21
    ac64:	0a00008c 	beq	ae9c <__adddf3+0x25c>
    ac68:	e1a04aa4 	lsr	r4, r4, #21
    ac6c:	e0745aa5 	rsbs	r5, r4, r5, lsr #21
    ac70:	b2655000 	rsblt	r5, r5, #0
    ac74:	da000006 	ble	ac94 <__adddf3+0x54>
    ac78:	e0844005 	add	r4, r4, r5
    ac7c:	e0202002 	eor	r2, r0, r2
    ac80:	e0213003 	eor	r3, r1, r3
    ac84:	e0220000 	eor	r0, r2, r0
    ac88:	e0231001 	eor	r1, r3, r1
    ac8c:	e0202002 	eor	r2, r0, r2
    ac90:	e0213003 	eor	r3, r1, r3
    ac94:	e3550036 	cmp	r5, #54	; 0x36
    ac98:	88bd4030 	pophi	{r4, r5, lr}
    ac9c:	812fff1e 	bxhi	lr
    aca0:	e3110102 	tst	r1, #-2147483648	; 0x80000000
    aca4:	e1a01601 	lsl	r1, r1, #12
    aca8:	e3a0c601 	mov	ip, #1048576	; 0x100000
    acac:	e18c1621 	orr	r1, ip, r1, lsr #12
    acb0:	0a000001 	beq	acbc <__adddf3+0x7c>
    acb4:	e2700000 	rsbs	r0, r0, #0
    acb8:	e2e11000 	rsc	r1, r1, #0
    acbc:	e3130102 	tst	r3, #-2147483648	; 0x80000000
    acc0:	e1a03603 	lsl	r3, r3, #12
    acc4:	e18c3623 	orr	r3, ip, r3, lsr #12
    acc8:	0a000001 	beq	acd4 <__adddf3+0x94>
    accc:	e2722000 	rsbs	r2, r2, #0
    acd0:	e2e33000 	rsc	r3, r3, #0
    acd4:	e1340005 	teq	r4, r5
    acd8:	0a000069 	beq	ae84 <__adddf3+0x244>
    acdc:	e2444001 	sub	r4, r4, #1
    ace0:	e275e020 	rsbs	lr, r5, #32
    ace4:	ba000005 	blt	ad00 <__adddf3+0xc0>
    ace8:	e1a0ce12 	lsl	ip, r2, lr
    acec:	e0900532 	adds	r0, r0, r2, lsr r5
    acf0:	e2a11000 	adc	r1, r1, #0
    acf4:	e0900e13 	adds	r0, r0, r3, lsl lr
    acf8:	e0b11553 	adcs	r1, r1, r3, asr r5
    acfc:	ea000006 	b	ad1c <__adddf3+0xdc>
    ad00:	e2455020 	sub	r5, r5, #32
    ad04:	e28ee020 	add	lr, lr, #32
    ad08:	e3520001 	cmp	r2, #1
    ad0c:	e1a0ce13 	lsl	ip, r3, lr
    ad10:	238cc002 	orrcs	ip, ip, #2
    ad14:	e0900553 	adds	r0, r0, r3, asr r5
    ad18:	e0b11fc3 	adcs	r1, r1, r3, asr #31
    ad1c:	e2015102 	and	r5, r1, #-2147483648	; 0x80000000
    ad20:	5a000002 	bpl	ad30 <__adddf3+0xf0>
    ad24:	e27cc000 	rsbs	ip, ip, #0
    ad28:	e2f00000 	rscs	r0, r0, #0
    ad2c:	e2e11000 	rsc	r1, r1, #0
    ad30:	e3510601 	cmp	r1, #1048576	; 0x100000
    ad34:	3a00000f 	bcc	ad78 <__adddf3+0x138>
    ad38:	e3510602 	cmp	r1, #2097152	; 0x200000
    ad3c:	3a000006 	bcc	ad5c <__adddf3+0x11c>
    ad40:	e1b010a1 	lsrs	r1, r1, #1
    ad44:	e1b00060 	rrxs	r0, r0
    ad48:	e1a0c06c 	rrx	ip, ip
    ad4c:	e2844001 	add	r4, r4, #1
    ad50:	e1a02a84 	lsl	r2, r4, #21
    ad54:	e3720501 	cmn	r2, #4194304	; 0x400000
    ad58:	2a00006b 	bcs	af0c <__adddf3+0x2cc>
    ad5c:	e35c0102 	cmp	ip, #-2147483648	; 0x80000000
    ad60:	01b0c0a0 	lsrseq	ip, r0, #1
    ad64:	e2b00000 	adcs	r0, r0, #0
    ad68:	e0a11a04 	adc	r1, r1, r4, lsl #20
    ad6c:	e1811005 	orr	r1, r1, r5
    ad70:	e8bd4030 	pop	{r4, r5, lr}
    ad74:	e12fff1e 	bx	lr
    ad78:	e1b0c08c 	lsls	ip, ip, #1
    ad7c:	e0b00000 	adcs	r0, r0, r0
    ad80:	e0a11001 	adc	r1, r1, r1
    ad84:	e3110601 	tst	r1, #1048576	; 0x100000
    ad88:	e2444001 	sub	r4, r4, #1
    ad8c:	1afffff2 	bne	ad5c <__adddf3+0x11c>
    ad90:	e3310000 	teq	r1, #0
    ad94:	13a03014 	movne	r3, #20
    ad98:	03a03034 	moveq	r3, #52	; 0x34
    ad9c:	01a01000 	moveq	r1, r0
    ada0:	03a00000 	moveq	r0, #0
    ada4:	e1a02001 	mov	r2, r1
    ada8:	e3520801 	cmp	r2, #65536	; 0x10000
    adac:	21a02822 	lsrcs	r2, r2, #16
    adb0:	22433010 	subcs	r3, r3, #16
    adb4:	e3520c01 	cmp	r2, #256	; 0x100
    adb8:	21a02422 	lsrcs	r2, r2, #8
    adbc:	22433008 	subcs	r3, r3, #8
    adc0:	e3520010 	cmp	r2, #16
    adc4:	21a02222 	lsrcs	r2, r2, #4
    adc8:	22433004 	subcs	r3, r3, #4
    adcc:	e3520004 	cmp	r2, #4
    add0:	22433002 	subcs	r3, r3, #2
    add4:	304330a2 	subcc	r3, r3, r2, lsr #1
    add8:	e04331a2 	sub	r3, r3, r2, lsr #3
    addc:	e2532020 	subs	r2, r3, #32
    ade0:	aa000007 	bge	ae04 <__adddf3+0x1c4>
    ade4:	e292200c 	adds	r2, r2, #12
    ade8:	da000004 	ble	ae00 <__adddf3+0x1c0>
    adec:	e282c014 	add	ip, r2, #20
    adf0:	e262200c 	rsb	r2, r2, #12
    adf4:	e1a00c11 	lsl	r0, r1, ip
    adf8:	e1a01231 	lsr	r1, r1, r2
    adfc:	ea000004 	b	ae14 <__adddf3+0x1d4>
    ae00:	e2822014 	add	r2, r2, #20
    ae04:	d262c020 	rsble	ip, r2, #32
    ae08:	e1a01211 	lsl	r1, r1, r2
    ae0c:	d1811c30 	orrle	r1, r1, r0, lsr ip
    ae10:	d1a00210 	lslle	r0, r0, r2
    ae14:	e0544003 	subs	r4, r4, r3
    ae18:	a0811a04 	addge	r1, r1, r4, lsl #20
    ae1c:	a1811005 	orrge	r1, r1, r5
    ae20:	a8bd4030 	popge	{r4, r5, lr}
    ae24:	a12fff1e 	bxge	lr
    ae28:	e1e04004 	mvn	r4, r4
    ae2c:	e254401f 	subs	r4, r4, #31
    ae30:	aa00000f 	bge	ae74 <__adddf3+0x234>
    ae34:	e294400c 	adds	r4, r4, #12
    ae38:	ca000006 	bgt	ae58 <__adddf3+0x218>
    ae3c:	e2844014 	add	r4, r4, #20
    ae40:	e2642020 	rsb	r2, r4, #32
    ae44:	e1a00430 	lsr	r0, r0, r4
    ae48:	e1800211 	orr	r0, r0, r1, lsl r2
    ae4c:	e1851431 	orr	r1, r5, r1, lsr r4
    ae50:	e8bd4030 	pop	{r4, r5, lr}
    ae54:	e12fff1e 	bx	lr
    ae58:	e264400c 	rsb	r4, r4, #12
    ae5c:	e2642020 	rsb	r2, r4, #32
    ae60:	e1a00230 	lsr	r0, r0, r2
    ae64:	e1800411 	orr	r0, r0, r1, lsl r4
    ae68:	e1a01005 	mov	r1, r5
    ae6c:	e8bd4030 	pop	{r4, r5, lr}
    ae70:	e12fff1e 	bx	lr
    ae74:	e1a00431 	lsr	r0, r1, r4
    ae78:	e1a01005 	mov	r1, r5
    ae7c:	e8bd4030 	pop	{r4, r5, lr}
    ae80:	e12fff1e 	bx	lr
    ae84:	e3340000 	teq	r4, #0
    ae88:	e2233601 	eor	r3, r3, #1048576	; 0x100000
    ae8c:	02211601 	eoreq	r1, r1, #1048576	; 0x100000
    ae90:	02844001 	addeq	r4, r4, #1
    ae94:	12455001 	subne	r5, r5, #1
    ae98:	eaffff8f 	b	acdc <__adddf3+0x9c>
    ae9c:	e1f0cac4 	mvns	ip, r4, asr #21
    aea0:	11f0cac5 	mvnsne	ip, r5, asr #21
    aea4:	0a00001d 	beq	af20 <__adddf3+0x2e0>
    aea8:	e1340005 	teq	r4, r5
    aeac:	01300002 	teqeq	r0, r2
    aeb0:	0a000004 	beq	aec8 <__adddf3+0x288>
    aeb4:	e194c000 	orrs	ip, r4, r0
    aeb8:	01a01003 	moveq	r1, r3
    aebc:	01a00002 	moveq	r0, r2
    aec0:	e8bd4030 	pop	{r4, r5, lr}
    aec4:	e12fff1e 	bx	lr
    aec8:	e1310003 	teq	r1, r3
    aecc:	13a01000 	movne	r1, #0
    aed0:	13a00000 	movne	r0, #0
    aed4:	18bd4030 	popne	{r4, r5, lr}
    aed8:	112fff1e 	bxne	lr
    aedc:	e1b0caa4 	lsrs	ip, r4, #21
    aee0:	1a000004 	bne	aef8 <__adddf3+0x2b8>
    aee4:	e1b00080 	lsls	r0, r0, #1
    aee8:	e0b11001 	adcs	r1, r1, r1
    aeec:	23811102 	orrcs	r1, r1, #-2147483648	; 0x80000000
    aef0:	e8bd4030 	pop	{r4, r5, lr}
    aef4:	e12fff1e 	bx	lr
    aef8:	e2944501 	adds	r4, r4, #4194304	; 0x400000
    aefc:	32811601 	addcc	r1, r1, #1048576	; 0x100000
    af00:	38bd4030 	popcc	{r4, r5, lr}
    af04:	312fff1e 	bxcc	lr
    af08:	e2015102 	and	r5, r1, #-2147483648	; 0x80000000
    af0c:	e385147f 	orr	r1, r5, #2130706432	; 0x7f000000
    af10:	e381160f 	orr	r1, r1, #15728640	; 0xf00000
    af14:	e3a00000 	mov	r0, #0
    af18:	e8bd4030 	pop	{r4, r5, lr}
    af1c:	e12fff1e 	bx	lr
    af20:	e1f0cac4 	mvns	ip, r4, asr #21
    af24:	11a01003 	movne	r1, r3
    af28:	11a00002 	movne	r0, r2
    af2c:	01f0cac5 	mvnseq	ip, r5, asr #21
    af30:	11a03001 	movne	r3, r1
    af34:	11a02000 	movne	r2, r0
    af38:	e1904601 	orrs	r4, r0, r1, lsl #12
    af3c:	01925603 	orrseq	r5, r2, r3, lsl #12
    af40:	01310003 	teqeq	r1, r3
    af44:	13811702 	orrne	r1, r1, #524288	; 0x80000
    af48:	e8bd4030 	pop	{r4, r5, lr}
    af4c:	e12fff1e 	bx	lr

0000af50 <__aeabi_ui2d>:
    af50:	e3300000 	teq	r0, #0
    af54:	03a01000 	moveq	r1, #0
    af58:	012fff1e 	bxeq	lr
    af5c:	e92d4030 	push	{r4, r5, lr}
    af60:	e3a04b01 	mov	r4, #1024	; 0x400
    af64:	e2844032 	add	r4, r4, #50	; 0x32
    af68:	e3a05000 	mov	r5, #0
    af6c:	e3a01000 	mov	r1, #0
    af70:	eaffff86 	b	ad90 <__adddf3+0x150>

0000af74 <__aeabi_i2d>:
    af74:	e3300000 	teq	r0, #0
    af78:	03a01000 	moveq	r1, #0
    af7c:	012fff1e 	bxeq	lr
    af80:	e92d4030 	push	{r4, r5, lr}
    af84:	e3a04b01 	mov	r4, #1024	; 0x400
    af88:	e2844032 	add	r4, r4, #50	; 0x32
    af8c:	e2105102 	ands	r5, r0, #-2147483648	; 0x80000000
    af90:	42600000 	rsbmi	r0, r0, #0
    af94:	e3a01000 	mov	r1, #0
    af98:	eaffff7c 	b	ad90 <__adddf3+0x150>

0000af9c <__aeabi_f2d>:
    af9c:	e1b02080 	lsls	r2, r0, #1
    afa0:	e1a011c2 	asr	r1, r2, #3
    afa4:	e1a01061 	rrx	r1, r1
    afa8:	e1a00e02 	lsl	r0, r2, #28
    afac:	121234ff 	andsne	r3, r2, #-16777216	; 0xff000000
    afb0:	133304ff 	teqne	r3, #-16777216	; 0xff000000
    afb4:	1221130e 	eorne	r1, r1, #939524096	; 0x38000000
    afb8:	112fff1e 	bxne	lr
    afbc:	e3320000 	teq	r2, #0
    afc0:	133304ff 	teqne	r3, #-16777216	; 0xff000000
    afc4:	012fff1e 	bxeq	lr
    afc8:	e92d4030 	push	{r4, r5, lr}
    afcc:	e3a04d0e 	mov	r4, #896	; 0x380
    afd0:	e2015102 	and	r5, r1, #-2147483648	; 0x80000000
    afd4:	e3c11102 	bic	r1, r1, #-2147483648	; 0x80000000
    afd8:	eaffff6c 	b	ad90 <__adddf3+0x150>

0000afdc <__aeabi_ul2d>:
    afdc:	e1902001 	orrs	r2, r0, r1
    afe0:	012fff1e 	bxeq	lr
    afe4:	e92d4030 	push	{r4, r5, lr}
    afe8:	e3a05000 	mov	r5, #0
    afec:	ea000006 	b	b00c <__aeabi_l2d+0x1c>

0000aff0 <__aeabi_l2d>:
    aff0:	e1902001 	orrs	r2, r0, r1
    aff4:	012fff1e 	bxeq	lr
    aff8:	e92d4030 	push	{r4, r5, lr}
    affc:	e2115102 	ands	r5, r1, #-2147483648	; 0x80000000
    b000:	5a000001 	bpl	b00c <__aeabi_l2d+0x1c>
    b004:	e2700000 	rsbs	r0, r0, #0
    b008:	e2e11000 	rsc	r1, r1, #0
    b00c:	e3a04b01 	mov	r4, #1024	; 0x400
    b010:	e2844032 	add	r4, r4, #50	; 0x32
    b014:	e1b0cb21 	lsrs	ip, r1, #22
    b018:	0affff44 	beq	ad30 <__adddf3+0xf0>
    b01c:	e3a02003 	mov	r2, #3
    b020:	e1b0c1ac 	lsrs	ip, ip, #3
    b024:	12822003 	addne	r2, r2, #3
    b028:	e1b0c1ac 	lsrs	ip, ip, #3
    b02c:	12822003 	addne	r2, r2, #3
    b030:	e08221ac 	add	r2, r2, ip, lsr #3
    b034:	e2623020 	rsb	r3, r2, #32
    b038:	e1a0c310 	lsl	ip, r0, r3
    b03c:	e1a00230 	lsr	r0, r0, r2
    b040:	e1800311 	orr	r0, r0, r1, lsl r3
    b044:	e1a01231 	lsr	r1, r1, r2
    b048:	e0844002 	add	r4, r4, r2
    b04c:	eaffff37 	b	ad30 <__adddf3+0xf0>

0000b050 <__aeabi_dmul>:
    b050:	e92d4070 	push	{r4, r5, r6, lr}
    b054:	e3a0c0ff 	mov	ip, #255	; 0xff
    b058:	e38ccc07 	orr	ip, ip, #1792	; 0x700
    b05c:	e01c4a21 	ands	r4, ip, r1, lsr #20
    b060:	101c5a23 	andsne	r5, ip, r3, lsr #20
    b064:	1134000c 	teqne	r4, ip
    b068:	1135000c 	teqne	r5, ip
    b06c:	0b000075 	bleq	b248 <__aeabi_dmul+0x1f8>
    b070:	e0844005 	add	r4, r4, r5
    b074:	e0216003 	eor	r6, r1, r3
    b078:	e1c11a8c 	bic	r1, r1, ip, lsl #21
    b07c:	e1c33a8c 	bic	r3, r3, ip, lsl #21
    b080:	e1905601 	orrs	r5, r0, r1, lsl #12
    b084:	11925603 	orrsne	r5, r2, r3, lsl #12
    b088:	e3811601 	orr	r1, r1, #1048576	; 0x100000
    b08c:	e3833601 	orr	r3, r3, #1048576	; 0x100000
    b090:	0a00001d 	beq	b10c <__aeabi_dmul+0xbc>
    b094:	e08ec290 	umull	ip, lr, r0, r2
    b098:	e3a05000 	mov	r5, #0
    b09c:	e0a5e291 	umlal	lr, r5, r1, r2
    b0a0:	e2062102 	and	r2, r6, #-2147483648	; 0x80000000
    b0a4:	e0a5e390 	umlal	lr, r5, r0, r3
    b0a8:	e3a06000 	mov	r6, #0
    b0ac:	e0a65391 	umlal	r5, r6, r1, r3
    b0b0:	e33c0000 	teq	ip, #0
    b0b4:	138ee001 	orrne	lr, lr, #1
    b0b8:	e24440ff 	sub	r4, r4, #255	; 0xff
    b0bc:	e3560c02 	cmp	r6, #512	; 0x200
    b0c0:	e2c44c03 	sbc	r4, r4, #768	; 0x300
    b0c4:	2a000002 	bcs	b0d4 <__aeabi_dmul+0x84>
    b0c8:	e1b0e08e 	lsls	lr, lr, #1
    b0cc:	e0b55005 	adcs	r5, r5, r5
    b0d0:	e0a66006 	adc	r6, r6, r6
    b0d4:	e1821586 	orr	r1, r2, r6, lsl #11
    b0d8:	e1811aa5 	orr	r1, r1, r5, lsr #21
    b0dc:	e1a00585 	lsl	r0, r5, #11
    b0e0:	e1800aae 	orr	r0, r0, lr, lsr #21
    b0e4:	e1a0e58e 	lsl	lr, lr, #11
    b0e8:	e254c0fd 	subs	ip, r4, #253	; 0xfd
    b0ec:	835c0c07 	cmphi	ip, #1792	; 0x700
    b0f0:	8a000011 	bhi	b13c <__aeabi_dmul+0xec>
    b0f4:	e35e0102 	cmp	lr, #-2147483648	; 0x80000000
    b0f8:	01b0e0a0 	lsrseq	lr, r0, #1
    b0fc:	e2b00000 	adcs	r0, r0, #0
    b100:	e0a11a04 	adc	r1, r1, r4, lsl #20
    b104:	e8bd4070 	pop	{r4, r5, r6, lr}
    b108:	e12fff1e 	bx	lr
    b10c:	e2066102 	and	r6, r6, #-2147483648	; 0x80000000
    b110:	e1861001 	orr	r1, r6, r1
    b114:	e1800002 	orr	r0, r0, r2
    b118:	e0211003 	eor	r1, r1, r3
    b11c:	e05440ac 	subs	r4, r4, ip, lsr #1
    b120:	c074500c 	rsbsgt	r5, r4, ip
    b124:	c1811a04 	orrgt	r1, r1, r4, lsl #20
    b128:	c8bd4070 	popgt	{r4, r5, r6, lr}
    b12c:	c12fff1e 	bxgt	lr
    b130:	e3811601 	orr	r1, r1, #1048576	; 0x100000
    b134:	e3a0e000 	mov	lr, #0
    b138:	e2544001 	subs	r4, r4, #1
    b13c:	ca00005d 	bgt	b2b8 <__aeabi_dmul+0x268>
    b140:	e3740036 	cmn	r4, #54	; 0x36
    b144:	d3a00000 	movle	r0, #0
    b148:	d2011102 	andle	r1, r1, #-2147483648	; 0x80000000
    b14c:	d8bd4070 	pople	{r4, r5, r6, lr}
    b150:	d12fff1e 	bxle	lr
    b154:	e2644000 	rsb	r4, r4, #0
    b158:	e2544020 	subs	r4, r4, #32
    b15c:	aa00001a 	bge	b1cc <__aeabi_dmul+0x17c>
    b160:	e294400c 	adds	r4, r4, #12
    b164:	ca00000c 	bgt	b19c <__aeabi_dmul+0x14c>
    b168:	e2844014 	add	r4, r4, #20
    b16c:	e2645020 	rsb	r5, r4, #32
    b170:	e1a03510 	lsl	r3, r0, r5
    b174:	e1a00430 	lsr	r0, r0, r4
    b178:	e1800511 	orr	r0, r0, r1, lsl r5
    b17c:	e2012102 	and	r2, r1, #-2147483648	; 0x80000000
    b180:	e3c11102 	bic	r1, r1, #-2147483648	; 0x80000000
    b184:	e0900fa3 	adds	r0, r0, r3, lsr #31
    b188:	e0a21431 	adc	r1, r2, r1, lsr r4
    b18c:	e19ee083 	orrs	lr, lr, r3, lsl #1
    b190:	01c00fa3 	biceq	r0, r0, r3, lsr #31
    b194:	e8bd4070 	pop	{r4, r5, r6, lr}
    b198:	e12fff1e 	bx	lr
    b19c:	e264400c 	rsb	r4, r4, #12
    b1a0:	e2645020 	rsb	r5, r4, #32
    b1a4:	e1a03410 	lsl	r3, r0, r4
    b1a8:	e1a00530 	lsr	r0, r0, r5
    b1ac:	e1800411 	orr	r0, r0, r1, lsl r4
    b1b0:	e2011102 	and	r1, r1, #-2147483648	; 0x80000000
    b1b4:	e0900fa3 	adds	r0, r0, r3, lsr #31
    b1b8:	e2a11000 	adc	r1, r1, #0
    b1bc:	e19ee083 	orrs	lr, lr, r3, lsl #1
    b1c0:	01c00fa3 	biceq	r0, r0, r3, lsr #31
    b1c4:	e8bd4070 	pop	{r4, r5, r6, lr}
    b1c8:	e12fff1e 	bx	lr
    b1cc:	e2645020 	rsb	r5, r4, #32
    b1d0:	e18ee510 	orr	lr, lr, r0, lsl r5
    b1d4:	e1a03430 	lsr	r3, r0, r4
    b1d8:	e1833511 	orr	r3, r3, r1, lsl r5
    b1dc:	e1a00431 	lsr	r0, r1, r4
    b1e0:	e2011102 	and	r1, r1, #-2147483648	; 0x80000000
    b1e4:	e1c00431 	bic	r0, r0, r1, lsr r4
    b1e8:	e0800fa3 	add	r0, r0, r3, lsr #31
    b1ec:	e19ee083 	orrs	lr, lr, r3, lsl #1
    b1f0:	01c00fa3 	biceq	r0, r0, r3, lsr #31
    b1f4:	e8bd4070 	pop	{r4, r5, r6, lr}
    b1f8:	e12fff1e 	bx	lr
    b1fc:	e3340000 	teq	r4, #0
    b200:	1a000008 	bne	b228 <__aeabi_dmul+0x1d8>
    b204:	e2016102 	and	r6, r1, #-2147483648	; 0x80000000
    b208:	e1b00080 	lsls	r0, r0, #1
    b20c:	e0a11001 	adc	r1, r1, r1
    b210:	e3110601 	tst	r1, #1048576	; 0x100000
    b214:	02444001 	subeq	r4, r4, #1
    b218:	0afffffa 	beq	b208 <__aeabi_dmul+0x1b8>
    b21c:	e1811006 	orr	r1, r1, r6
    b220:	e3350000 	teq	r5, #0
    b224:	112fff1e 	bxne	lr
    b228:	e2036102 	and	r6, r3, #-2147483648	; 0x80000000
    b22c:	e1b02082 	lsls	r2, r2, #1
    b230:	e0a33003 	adc	r3, r3, r3
    b234:	e3130601 	tst	r3, #1048576	; 0x100000
    b238:	02455001 	subeq	r5, r5, #1
    b23c:	0afffffa 	beq	b22c <__aeabi_dmul+0x1dc>
    b240:	e1833006 	orr	r3, r3, r6
    b244:	e12fff1e 	bx	lr
    b248:	e134000c 	teq	r4, ip
    b24c:	e00c5a23 	and	r5, ip, r3, lsr #20
    b250:	1135000c 	teqne	r5, ip
    b254:	0a000007 	beq	b278 <__aeabi_dmul+0x228>
    b258:	e1906081 	orrs	r6, r0, r1, lsl #1
    b25c:	11926083 	orrsne	r6, r2, r3, lsl #1
    b260:	1affffe5 	bne	b1fc <__aeabi_dmul+0x1ac>
    b264:	e0211003 	eor	r1, r1, r3
    b268:	e2011102 	and	r1, r1, #-2147483648	; 0x80000000
    b26c:	e3a00000 	mov	r0, #0
    b270:	e8bd4070 	pop	{r4, r5, r6, lr}
    b274:	e12fff1e 	bx	lr
    b278:	e1906081 	orrs	r6, r0, r1, lsl #1
    b27c:	01a00002 	moveq	r0, r2
    b280:	01a01003 	moveq	r1, r3
    b284:	11926083 	orrsne	r6, r2, r3, lsl #1
    b288:	0a000010 	beq	b2d0 <__aeabi_dmul+0x280>
    b28c:	e134000c 	teq	r4, ip
    b290:	1a000001 	bne	b29c <__aeabi_dmul+0x24c>
    b294:	e1906601 	orrs	r6, r0, r1, lsl #12
    b298:	1a00000c 	bne	b2d0 <__aeabi_dmul+0x280>
    b29c:	e135000c 	teq	r5, ip
    b2a0:	1a000003 	bne	b2b4 <__aeabi_dmul+0x264>
    b2a4:	e1926603 	orrs	r6, r2, r3, lsl #12
    b2a8:	11a00002 	movne	r0, r2
    b2ac:	11a01003 	movne	r1, r3
    b2b0:	1a000006 	bne	b2d0 <__aeabi_dmul+0x280>
    b2b4:	e0211003 	eor	r1, r1, r3
    b2b8:	e2011102 	and	r1, r1, #-2147483648	; 0x80000000
    b2bc:	e381147f 	orr	r1, r1, #2130706432	; 0x7f000000
    b2c0:	e381160f 	orr	r1, r1, #15728640	; 0xf00000
    b2c4:	e3a00000 	mov	r0, #0
    b2c8:	e8bd4070 	pop	{r4, r5, r6, lr}
    b2cc:	e12fff1e 	bx	lr
    b2d0:	e381147f 	orr	r1, r1, #2130706432	; 0x7f000000
    b2d4:	e381173e 	orr	r1, r1, #16252928	; 0xf80000
    b2d8:	e8bd4070 	pop	{r4, r5, r6, lr}
    b2dc:	e12fff1e 	bx	lr

0000b2e0 <__aeabi_ddiv>:
    b2e0:	e92d4070 	push	{r4, r5, r6, lr}
    b2e4:	e3a0c0ff 	mov	ip, #255	; 0xff
    b2e8:	e38ccc07 	orr	ip, ip, #1792	; 0x700
    b2ec:	e01c4a21 	ands	r4, ip, r1, lsr #20
    b2f0:	101c5a23 	andsne	r5, ip, r3, lsr #20
    b2f4:	1134000c 	teqne	r4, ip
    b2f8:	1135000c 	teqne	r5, ip
    b2fc:	0b00005e 	bleq	b47c <__aeabi_ddiv+0x19c>
    b300:	e0444005 	sub	r4, r4, r5
    b304:	e021e003 	eor	lr, r1, r3
    b308:	e1925603 	orrs	r5, r2, r3, lsl #12
    b30c:	e1a01601 	lsl	r1, r1, #12
    b310:	0a00004c 	beq	b448 <__aeabi_ddiv+0x168>
    b314:	e1a03603 	lsl	r3, r3, #12
    b318:	e3a05201 	mov	r5, #268435456	; 0x10000000
    b31c:	e1853223 	orr	r3, r5, r3, lsr #4
    b320:	e1833c22 	orr	r3, r3, r2, lsr #24
    b324:	e1a02402 	lsl	r2, r2, #8
    b328:	e1855221 	orr	r5, r5, r1, lsr #4
    b32c:	e1855c20 	orr	r5, r5, r0, lsr #24
    b330:	e1a06400 	lsl	r6, r0, #8
    b334:	e20e1102 	and	r1, lr, #-2147483648	; 0x80000000
    b338:	e1550003 	cmp	r5, r3
    b33c:	01560002 	cmpeq	r6, r2
    b340:	e2a440fd 	adc	r4, r4, #253	; 0xfd
    b344:	e2844c03 	add	r4, r4, #768	; 0x300
    b348:	2a000001 	bcs	b354 <__aeabi_ddiv+0x74>
    b34c:	e1b030a3 	lsrs	r3, r3, #1
    b350:	e1a02062 	rrx	r2, r2
    b354:	e0566002 	subs	r6, r6, r2
    b358:	e0c55003 	sbc	r5, r5, r3
    b35c:	e1b030a3 	lsrs	r3, r3, #1
    b360:	e1a02062 	rrx	r2, r2
    b364:	e3a00601 	mov	r0, #1048576	; 0x100000
    b368:	e3a0c702 	mov	ip, #524288	; 0x80000
    b36c:	e056e002 	subs	lr, r6, r2
    b370:	e0d5e003 	sbcs	lr, r5, r3
    b374:	20466002 	subcs	r6, r6, r2
    b378:	21a0500e 	movcs	r5, lr
    b37c:	2180000c 	orrcs	r0, r0, ip
    b380:	e1b030a3 	lsrs	r3, r3, #1
    b384:	e1a02062 	rrx	r2, r2
    b388:	e056e002 	subs	lr, r6, r2
    b38c:	e0d5e003 	sbcs	lr, r5, r3
    b390:	20466002 	subcs	r6, r6, r2
    b394:	21a0500e 	movcs	r5, lr
    b398:	218000ac 	orrcs	r0, r0, ip, lsr #1
    b39c:	e1b030a3 	lsrs	r3, r3, #1
    b3a0:	e1a02062 	rrx	r2, r2
    b3a4:	e056e002 	subs	lr, r6, r2
    b3a8:	e0d5e003 	sbcs	lr, r5, r3
    b3ac:	20466002 	subcs	r6, r6, r2
    b3b0:	21a0500e 	movcs	r5, lr
    b3b4:	2180012c 	orrcs	r0, r0, ip, lsr #2
    b3b8:	e1b030a3 	lsrs	r3, r3, #1
    b3bc:	e1a02062 	rrx	r2, r2
    b3c0:	e056e002 	subs	lr, r6, r2
    b3c4:	e0d5e003 	sbcs	lr, r5, r3
    b3c8:	20466002 	subcs	r6, r6, r2
    b3cc:	21a0500e 	movcs	r5, lr
    b3d0:	218001ac 	orrcs	r0, r0, ip, lsr #3
    b3d4:	e195e006 	orrs	lr, r5, r6
    b3d8:	0a00000d 	beq	b414 <__aeabi_ddiv+0x134>
    b3dc:	e1a05205 	lsl	r5, r5, #4
    b3e0:	e1855e26 	orr	r5, r5, r6, lsr #28
    b3e4:	e1a06206 	lsl	r6, r6, #4
    b3e8:	e1a03183 	lsl	r3, r3, #3
    b3ec:	e1833ea2 	orr	r3, r3, r2, lsr #29
    b3f0:	e1a02182 	lsl	r2, r2, #3
    b3f4:	e1b0c22c 	lsrs	ip, ip, #4
    b3f8:	1affffdb 	bne	b36c <__aeabi_ddiv+0x8c>
    b3fc:	e3110601 	tst	r1, #1048576	; 0x100000
    b400:	1a000006 	bne	b420 <__aeabi_ddiv+0x140>
    b404:	e1811000 	orr	r1, r1, r0
    b408:	e3a00000 	mov	r0, #0
    b40c:	e3a0c102 	mov	ip, #-2147483648	; 0x80000000
    b410:	eaffffd5 	b	b36c <__aeabi_ddiv+0x8c>
    b414:	e3110601 	tst	r1, #1048576	; 0x100000
    b418:	01811000 	orreq	r1, r1, r0
    b41c:	03a00000 	moveq	r0, #0
    b420:	e254c0fd 	subs	ip, r4, #253	; 0xfd
    b424:	835c0c07 	cmphi	ip, #1792	; 0x700
    b428:	8affff43 	bhi	b13c <__aeabi_dmul+0xec>
    b42c:	e055c003 	subs	ip, r5, r3
    b430:	0056c002 	subseq	ip, r6, r2
    b434:	01b0c0a0 	lsrseq	ip, r0, #1
    b438:	e2b00000 	adcs	r0, r0, #0
    b43c:	e0a11a04 	adc	r1, r1, r4, lsl #20
    b440:	e8bd4070 	pop	{r4, r5, r6, lr}
    b444:	e12fff1e 	bx	lr
    b448:	e20ee102 	and	lr, lr, #-2147483648	; 0x80000000
    b44c:	e18e1621 	orr	r1, lr, r1, lsr #12
    b450:	e09440ac 	adds	r4, r4, ip, lsr #1
    b454:	c074500c 	rsbsgt	r5, r4, ip
    b458:	c1811a04 	orrgt	r1, r1, r4, lsl #20
    b45c:	c8bd4070 	popgt	{r4, r5, r6, lr}
    b460:	c12fff1e 	bxgt	lr
    b464:	e3811601 	orr	r1, r1, #1048576	; 0x100000
    b468:	e3a0e000 	mov	lr, #0
    b46c:	e2544001 	subs	r4, r4, #1
    b470:	eaffff31 	b	b13c <__aeabi_dmul+0xec>
    b474:	e185e006 	orr	lr, r5, r6
    b478:	eaffff2f 	b	b13c <__aeabi_dmul+0xec>
    b47c:	e00c5a23 	and	r5, ip, r3, lsr #20
    b480:	e134000c 	teq	r4, ip
    b484:	0135000c 	teqeq	r5, ip
    b488:	0affff90 	beq	b2d0 <__aeabi_dmul+0x280>
    b48c:	e134000c 	teq	r4, ip
    b490:	1a000006 	bne	b4b0 <__aeabi_ddiv+0x1d0>
    b494:	e1904601 	orrs	r4, r0, r1, lsl #12
    b498:	1affff8c 	bne	b2d0 <__aeabi_dmul+0x280>
    b49c:	e135000c 	teq	r5, ip
    b4a0:	1affff83 	bne	b2b4 <__aeabi_dmul+0x264>
    b4a4:	e1a00002 	mov	r0, r2
    b4a8:	e1a01003 	mov	r1, r3
    b4ac:	eaffff87 	b	b2d0 <__aeabi_dmul+0x280>
    b4b0:	e135000c 	teq	r5, ip
    b4b4:	1a000004 	bne	b4cc <__aeabi_ddiv+0x1ec>
    b4b8:	e1925603 	orrs	r5, r2, r3, lsl #12
    b4bc:	0affff68 	beq	b264 <__aeabi_dmul+0x214>
    b4c0:	e1a00002 	mov	r0, r2
    b4c4:	e1a01003 	mov	r1, r3
    b4c8:	eaffff80 	b	b2d0 <__aeabi_dmul+0x280>
    b4cc:	e1906081 	orrs	r6, r0, r1, lsl #1
    b4d0:	11926083 	orrsne	r6, r2, r3, lsl #1
    b4d4:	1affff48 	bne	b1fc <__aeabi_dmul+0x1ac>
    b4d8:	e1904081 	orrs	r4, r0, r1, lsl #1
    b4dc:	1affff74 	bne	b2b4 <__aeabi_dmul+0x264>
    b4e0:	e1925083 	orrs	r5, r2, r3, lsl #1
    b4e4:	1affff5e 	bne	b264 <__aeabi_dmul+0x214>
    b4e8:	eaffff78 	b	b2d0 <__aeabi_dmul+0x280>

0000b4ec <__gedf2>:
    b4ec:	e3e0c000 	mvn	ip, #0
    b4f0:	ea000002 	b	b500 <__cmpdf2+0x4>

0000b4f4 <__ledf2>:
    b4f4:	e3a0c001 	mov	ip, #1
    b4f8:	ea000000 	b	b500 <__cmpdf2+0x4>

0000b4fc <__cmpdf2>:
    b4fc:	e3a0c001 	mov	ip, #1
    b500:	e52dc004 	push	{ip}		; (str ip, [sp, #-4]!)
    b504:	e1a0c081 	lsl	ip, r1, #1
    b508:	e1f0cacc 	mvns	ip, ip, asr #21
    b50c:	e1a0c083 	lsl	ip, r3, #1
    b510:	11f0cacc 	mvnsne	ip, ip, asr #21
    b514:	0a00000e 	beq	b554 <__cmpdf2+0x58>
    b518:	e28dd004 	add	sp, sp, #4
    b51c:	e190c081 	orrs	ip, r0, r1, lsl #1
    b520:	0192c083 	orrseq	ip, r2, r3, lsl #1
    b524:	11310003 	teqne	r1, r3
    b528:	01300002 	teqeq	r0, r2
    b52c:	03a00000 	moveq	r0, #0
    b530:	012fff1e 	bxeq	lr
    b534:	e3700000 	cmn	r0, #0
    b538:	e1310003 	teq	r1, r3
    b53c:	51510003 	cmppl	r1, r3
    b540:	01500002 	cmpeq	r0, r2
    b544:	21a00fc3 	asrcs	r0, r3, #31
    b548:	31e00fc3 	mvncc	r0, r3, asr #31
    b54c:	e3800001 	orr	r0, r0, #1
    b550:	e12fff1e 	bx	lr
    b554:	e1a0c081 	lsl	ip, r1, #1
    b558:	e1f0cacc 	mvns	ip, ip, asr #21
    b55c:	1a000001 	bne	b568 <__cmpdf2+0x6c>
    b560:	e190c601 	orrs	ip, r0, r1, lsl #12
    b564:	1a000004 	bne	b57c <__cmpdf2+0x80>
    b568:	e1a0c083 	lsl	ip, r3, #1
    b56c:	e1f0cacc 	mvns	ip, ip, asr #21
    b570:	1affffe8 	bne	b518 <__cmpdf2+0x1c>
    b574:	e192c603 	orrs	ip, r2, r3, lsl #12
    b578:	0affffe6 	beq	b518 <__cmpdf2+0x1c>
    b57c:	e49d0004 	pop	{r0}		; (ldr r0, [sp], #4)
    b580:	e12fff1e 	bx	lr

0000b584 <__aeabi_cdrcmple>:
    b584:	e1a0c000 	mov	ip, r0
    b588:	e1a00002 	mov	r0, r2
    b58c:	e1a0200c 	mov	r2, ip
    b590:	e1a0c001 	mov	ip, r1
    b594:	e1a01003 	mov	r1, r3
    b598:	e1a0300c 	mov	r3, ip
    b59c:	eaffffff 	b	b5a0 <__aeabi_cdcmpeq>

0000b5a0 <__aeabi_cdcmpeq>:
    b5a0:	e92d4001 	push	{r0, lr}
    b5a4:	ebffffd4 	bl	b4fc <__cmpdf2>
    b5a8:	e3500000 	cmp	r0, #0
    b5ac:	43700000 	cmnmi	r0, #0
    b5b0:	e8bd4001 	pop	{r0, lr}
    b5b4:	e12fff1e 	bx	lr

0000b5b8 <__aeabi_dcmpeq>:
    b5b8:	e52de008 	str	lr, [sp, #-8]!
    b5bc:	ebfffff7 	bl	b5a0 <__aeabi_cdcmpeq>
    b5c0:	03a00001 	moveq	r0, #1
    b5c4:	13a00000 	movne	r0, #0
    b5c8:	e49de008 	ldr	lr, [sp], #8
    b5cc:	e12fff1e 	bx	lr

0000b5d0 <__aeabi_dcmplt>:
    b5d0:	e52de008 	str	lr, [sp, #-8]!
    b5d4:	ebfffff1 	bl	b5a0 <__aeabi_cdcmpeq>
    b5d8:	33a00001 	movcc	r0, #1
    b5dc:	23a00000 	movcs	r0, #0
    b5e0:	e49de008 	ldr	lr, [sp], #8
    b5e4:	e12fff1e 	bx	lr

0000b5e8 <__aeabi_dcmple>:
    b5e8:	e52de008 	str	lr, [sp, #-8]!
    b5ec:	ebffffeb 	bl	b5a0 <__aeabi_cdcmpeq>
    b5f0:	93a00001 	movls	r0, #1
    b5f4:	83a00000 	movhi	r0, #0
    b5f8:	e49de008 	ldr	lr, [sp], #8
    b5fc:	e12fff1e 	bx	lr

0000b600 <__aeabi_dcmpge>:
    b600:	e52de008 	str	lr, [sp, #-8]!
    b604:	ebffffde 	bl	b584 <__aeabi_cdrcmple>
    b608:	93a00001 	movls	r0, #1
    b60c:	83a00000 	movhi	r0, #0
    b610:	e49de008 	ldr	lr, [sp], #8
    b614:	e12fff1e 	bx	lr

0000b618 <__aeabi_dcmpgt>:
    b618:	e52de008 	str	lr, [sp, #-8]!
    b61c:	ebffffd8 	bl	b584 <__aeabi_cdrcmple>
    b620:	33a00001 	movcc	r0, #1
    b624:	23a00000 	movcs	r0, #0
    b628:	e49de008 	ldr	lr, [sp], #8
    b62c:	e12fff1e 	bx	lr

0000b630 <__aeabi_d2iz>:
    b630:	e1a02081 	lsl	r2, r1, #1
    b634:	e2922602 	adds	r2, r2, #2097152	; 0x200000
    b638:	2a00000c 	bcs	b670 <__aeabi_d2iz+0x40>
    b63c:	5a000009 	bpl	b668 <__aeabi_d2iz+0x38>
    b640:	e3e03e3e 	mvn	r3, #992	; 0x3e0
    b644:	e0532ac2 	subs	r2, r3, r2, asr #21
    b648:	9a00000a 	bls	b678 <__aeabi_d2iz+0x48>
    b64c:	e1a03581 	lsl	r3, r1, #11
    b650:	e3833102 	orr	r3, r3, #-2147483648	; 0x80000000
    b654:	e1833aa0 	orr	r3, r3, r0, lsr #21
    b658:	e3110102 	tst	r1, #-2147483648	; 0x80000000
    b65c:	e1a00233 	lsr	r0, r3, r2
    b660:	12600000 	rsbne	r0, r0, #0
    b664:	e12fff1e 	bx	lr
    b668:	e3a00000 	mov	r0, #0
    b66c:	e12fff1e 	bx	lr
    b670:	e1900601 	orrs	r0, r0, r1, lsl #12
    b674:	1a000002 	bne	b684 <__aeabi_d2iz+0x54>
    b678:	e2110102 	ands	r0, r1, #-2147483648	; 0x80000000
    b67c:	03e00102 	mvneq	r0, #-2147483648	; 0x80000000
    b680:	e12fff1e 	bx	lr
    b684:	e3a00000 	mov	r0, #0
    b688:	e12fff1e 	bx	lr

0000b68c <__aeabi_d2uiz>:
    b68c:	e1b02081 	lsls	r2, r1, #1
    b690:	2a00000a 	bcs	b6c0 <__aeabi_d2uiz+0x34>
    b694:	e2922602 	adds	r2, r2, #2097152	; 0x200000
    b698:	2a00000a 	bcs	b6c8 <__aeabi_d2uiz+0x3c>
    b69c:	5a000007 	bpl	b6c0 <__aeabi_d2uiz+0x34>
    b6a0:	e3e03e3e 	mvn	r3, #992	; 0x3e0
    b6a4:	e0532ac2 	subs	r2, r3, r2, asr #21
    b6a8:	4a000008 	bmi	b6d0 <__aeabi_d2uiz+0x44>
    b6ac:	e1a03581 	lsl	r3, r1, #11
    b6b0:	e3833102 	orr	r3, r3, #-2147483648	; 0x80000000
    b6b4:	e1833aa0 	orr	r3, r3, r0, lsr #21
    b6b8:	e1a00233 	lsr	r0, r3, r2
    b6bc:	e12fff1e 	bx	lr
    b6c0:	e3a00000 	mov	r0, #0
    b6c4:	e12fff1e 	bx	lr
    b6c8:	e1900601 	orrs	r0, r0, r1, lsl #12
    b6cc:	1a000001 	bne	b6d8 <__aeabi_d2uiz+0x4c>
    b6d0:	e3e00000 	mvn	r0, #0
    b6d4:	e12fff1e 	bx	lr
    b6d8:	e3a00000 	mov	r0, #0
    b6dc:	e12fff1e 	bx	lr

0000b6e0 <__aeabi_uldivmod>:
    b6e0:	e3530000 	cmp	r3, #0
    b6e4:	03520000 	cmpeq	r2, #0
    b6e8:	1a000004 	bne	b700 <__aeabi_uldivmod+0x20>
    b6ec:	e3510000 	cmp	r1, #0
    b6f0:	03500000 	cmpeq	r0, #0
    b6f4:	13e01000 	mvnne	r1, #0
    b6f8:	13e00000 	mvnne	r0, #0
    b6fc:	eafffd44 	b	ac14 <__aeabi_idiv0>
    b700:	e24dd008 	sub	sp, sp, #8
    b704:	e92d6000 	push	{sp, lr}
    b708:	eb000014 	bl	b760 <__gnu_uldivmod_helper>
    b70c:	e59de004 	ldr	lr, [sp, #4]
    b710:	e28dd008 	add	sp, sp, #8
    b714:	e8bd000c 	pop	{r2, r3}
    b718:	e12fff1e 	bx	lr

0000b71c <__gnu_ldivmod_helper>:
    b71c:	e92d47f0 	push	{r4, r5, r6, r7, r8, r9, sl, lr}
    b720:	e59d9020 	ldr	r9, [sp, #32]
    b724:	e1a08002 	mov	r8, r2
    b728:	e1a0a003 	mov	sl, r3
    b72c:	e1a06000 	mov	r6, r0
    b730:	e1a07001 	mov	r7, r1
    b734:	eb000019 	bl	b7a0 <__divdi3>
    b738:	e0030198 	mul	r3, r8, r1
    b73c:	e1a02000 	mov	r2, r0
    b740:	e0854098 	umull	r4, r5, r8, r0
    b744:	e022329a 	mla	r2, sl, r2, r3
    b748:	e0825005 	add	r5, r2, r5
    b74c:	e0564004 	subs	r4, r6, r4
    b750:	e0c75005 	sbc	r5, r7, r5
    b754:	e8890030 	stm	r9, {r4, r5}
    b758:	e8bd47f0 	pop	{r4, r5, r6, r7, r8, r9, sl, lr}
    b75c:	e12fff1e 	bx	lr

0000b760 <__gnu_uldivmod_helper>:
    b760:	e92d43f8 	push	{r3, r4, r5, r6, r7, r8, r9, lr}
    b764:	e59d9020 	ldr	r9, [sp, #32]
    b768:	e1a06000 	mov	r6, r0
    b76c:	e1a07001 	mov	r7, r1
    b770:	e1a08002 	mov	r8, r2
    b774:	e1a04003 	mov	r4, r3
    b778:	eb00013c 	bl	bc70 <__udivdi3>
    b77c:	e0030490 	mul	r3, r0, r4
    b780:	e0854890 	umull	r4, r5, r0, r8
    b784:	e0283891 	mla	r8, r1, r8, r3
    b788:	e0885005 	add	r5, r8, r5
    b78c:	e0564004 	subs	r4, r6, r4
    b790:	e0c75005 	sbc	r5, r7, r5
    b794:	e8890030 	stm	r9, {r4, r5}
    b798:	e8bd43f8 	pop	{r3, r4, r5, r6, r7, r8, r9, lr}
    b79c:	e12fff1e 	bx	lr

0000b7a0 <__divdi3>:
    b7a0:	e92d4ff0 	push	{r4, r5, r6, r7, r8, r9, sl, fp, lr}
    b7a4:	e2704000 	rsbs	r4, r0, #0
    b7a8:	e2e15000 	rsc	r5, r1, #0
    b7ac:	e3510000 	cmp	r1, #0
    b7b0:	e3e06000 	mvn	r6, #0
    b7b4:	a1a04000 	movge	r4, r0
    b7b8:	a1a05001 	movge	r5, r1
    b7bc:	a3a06000 	movge	r6, #0
    b7c0:	e3530000 	cmp	r3, #0
    b7c4:	e24dd014 	sub	sp, sp, #20
    b7c8:	ba000098 	blt	ba30 <__divdi3+0x290>
    b7cc:	e3530000 	cmp	r3, #0
    b7d0:	e1a0c004 	mov	ip, r4
    b7d4:	e1a0b005 	mov	fp, r5
    b7d8:	e1a0a002 	mov	sl, r2
    b7dc:	e1a01003 	mov	r1, r3
    b7e0:	e1a08002 	mov	r8, r2
    b7e4:	e1a07004 	mov	r7, r4
    b7e8:	e1a09005 	mov	r9, r5
    b7ec:	1a000040 	bne	b8f4 <__divdi3+0x154>
    b7f0:	e1520005 	cmp	r2, r5
    b7f4:	9a000052 	bls	b944 <__divdi3+0x1a4>
    b7f8:	e1a00002 	mov	r0, r2
    b7fc:	eb000237 	bl	c0e0 <__clzsi2>
    b800:	e3500000 	cmp	r0, #0
    b804:	12603020 	rsbne	r3, r0, #32
    b808:	11a03334 	lsrne	r3, r4, r3
    b80c:	11a0801a 	lslne	r8, sl, r0
    b810:	11839015 	orrne	r9, r3, r5, lsl r0
    b814:	11a07014 	lslne	r7, r4, r0
    b818:	e1a04828 	lsr	r4, r8, #16
    b81c:	e1a01004 	mov	r1, r4
    b820:	e1a00009 	mov	r0, r9
    b824:	ebfffc63 	bl	a9b8 <__aeabi_uidiv>
    b828:	e1a01004 	mov	r1, r4
    b82c:	e1a0b000 	mov	fp, r0
    b830:	e1a00009 	mov	r0, r9
    b834:	ebfffc9c 	bl	aaac <__aeabi_uidivmod>
    b838:	e1a0a808 	lsl	sl, r8, #16
    b83c:	e1a0a82a 	lsr	sl, sl, #16
    b840:	e0000b9a 	mul	r0, sl, fp
    b844:	e1a02827 	lsr	r2, r7, #16
    b848:	e1821801 	orr	r1, r2, r1, lsl #16
    b84c:	e1500001 	cmp	r0, r1
    b850:	9a000007 	bls	b874 <__divdi3+0xd4>
    b854:	e0911008 	adds	r1, r1, r8
    b858:	e24b3001 	sub	r3, fp, #1
    b85c:	2a000003 	bcs	b870 <__divdi3+0xd0>
    b860:	e1500001 	cmp	r0, r1
    b864:	824bb002 	subhi	fp, fp, #2
    b868:	80811008 	addhi	r1, r1, r8
    b86c:	8a000000 	bhi	b874 <__divdi3+0xd4>
    b870:	e1a0b003 	mov	fp, r3
    b874:	e0609001 	rsb	r9, r0, r1
    b878:	e1a00009 	mov	r0, r9
    b87c:	e1a01004 	mov	r1, r4
    b880:	ebfffc4c 	bl	a9b8 <__aeabi_uidiv>
    b884:	e1a01004 	mov	r1, r4
    b888:	e1a05000 	mov	r5, r0
    b88c:	e1a00009 	mov	r0, r9
    b890:	ebfffc85 	bl	aaac <__aeabi_uidivmod>
    b894:	e00a0a95 	mul	sl, r5, sl
    b898:	e1a07807 	lsl	r7, r7, #16
    b89c:	e1a07827 	lsr	r7, r7, #16
    b8a0:	e1871801 	orr	r1, r7, r1, lsl #16
    b8a4:	e15a0001 	cmp	sl, r1
    b8a8:	9a000006 	bls	b8c8 <__divdi3+0x128>
    b8ac:	e0918008 	adds	r8, r1, r8
    b8b0:	e2453001 	sub	r3, r5, #1
    b8b4:	2a000002 	bcs	b8c4 <__divdi3+0x124>
    b8b8:	e15a0008 	cmp	sl, r8
    b8bc:	82455002 	subhi	r5, r5, #2
    b8c0:	8a000000 	bhi	b8c8 <__divdi3+0x128>
    b8c4:	e1a05003 	mov	r5, r3
    b8c8:	e185380b 	orr	r3, r5, fp, lsl #16
    b8cc:	e3a04000 	mov	r4, #0
    b8d0:	e3560000 	cmp	r6, #0
    b8d4:	e1a00003 	mov	r0, r3
    b8d8:	e1a01004 	mov	r1, r4
    b8dc:	0a000001 	beq	b8e8 <__divdi3+0x148>
    b8e0:	e2700000 	rsbs	r0, r0, #0
    b8e4:	e2e11000 	rsc	r1, r1, #0
    b8e8:	e28dd014 	add	sp, sp, #20
    b8ec:	e8bd4ff0 	pop	{r4, r5, r6, r7, r8, r9, sl, fp, lr}
    b8f0:	e12fff1e 	bx	lr
    b8f4:	e1530005 	cmp	r3, r5
    b8f8:	83a04000 	movhi	r4, #0
    b8fc:	81a03004 	movhi	r3, r4
    b900:	8afffff2 	bhi	b8d0 <__divdi3+0x130>
    b904:	e1a00003 	mov	r0, r3
    b908:	e58d100c 	str	r1, [sp, #12]
    b90c:	e58dc008 	str	ip, [sp, #8]
    b910:	eb0001f2 	bl	c0e0 <__clzsi2>
    b914:	e2505000 	subs	r5, r0, #0
    b918:	e59d100c 	ldr	r1, [sp, #12]
    b91c:	e59dc008 	ldr	ip, [sp, #8]
    b920:	1a00007f 	bne	bb24 <__divdi3+0x384>
    b924:	e151000b 	cmp	r1, fp
    b928:	215a000c 	cmpcs	sl, ip
    b92c:	83a04000 	movhi	r4, #0
    b930:	93a04001 	movls	r4, #1
    b934:	93a03001 	movls	r3, #1
    b938:	91a04005 	movls	r4, r5
    b93c:	81a03004 	movhi	r3, r4
    b940:	eaffffe2 	b	b8d0 <__divdi3+0x130>
    b944:	e3520000 	cmp	r2, #0
    b948:	1a000003 	bne	b95c <__divdi3+0x1bc>
    b94c:	e1a01002 	mov	r1, r2
    b950:	e3a00001 	mov	r0, #1
    b954:	ebfffc17 	bl	a9b8 <__aeabi_uidiv>
    b958:	e1a08000 	mov	r8, r0
    b95c:	e1a00008 	mov	r0, r8
    b960:	eb0001de 	bl	c0e0 <__clzsi2>
    b964:	e2503000 	subs	r3, r0, #0
    b968:	1a000034 	bne	ba40 <__divdi3+0x2a0>
    b96c:	e1a0a808 	lsl	sl, r8, #16
    b970:	e0689009 	rsb	r9, r8, r9
    b974:	e1a0a82a 	lsr	sl, sl, #16
    b978:	e1a05828 	lsr	r5, r8, #16
    b97c:	e3a04001 	mov	r4, #1
    b980:	e1a01005 	mov	r1, r5
    b984:	e1a00009 	mov	r0, r9
    b988:	ebfffc0a 	bl	a9b8 <__aeabi_uidiv>
    b98c:	e1a01005 	mov	r1, r5
    b990:	e1a0b000 	mov	fp, r0
    b994:	e1a00009 	mov	r0, r9
    b998:	ebfffc43 	bl	aaac <__aeabi_uidivmod>
    b99c:	e0000b9a 	mul	r0, sl, fp
    b9a0:	e1a02827 	lsr	r2, r7, #16
    b9a4:	e1821801 	orr	r1, r2, r1, lsl #16
    b9a8:	e1500001 	cmp	r0, r1
    b9ac:	9a000006 	bls	b9cc <__divdi3+0x22c>
    b9b0:	e0911008 	adds	r1, r1, r8
    b9b4:	e24b3001 	sub	r3, fp, #1
    b9b8:	2a0000a4 	bcs	bc50 <__divdi3+0x4b0>
    b9bc:	e1500001 	cmp	r0, r1
    b9c0:	824bb002 	subhi	fp, fp, #2
    b9c4:	80811008 	addhi	r1, r1, r8
    b9c8:	9a0000a0 	bls	bc50 <__divdi3+0x4b0>
    b9cc:	e0602001 	rsb	r2, r0, r1
    b9d0:	e1a00002 	mov	r0, r2
    b9d4:	e1a01005 	mov	r1, r5
    b9d8:	e58d200c 	str	r2, [sp, #12]
    b9dc:	ebfffbf5 	bl	a9b8 <__aeabi_uidiv>
    b9e0:	e59d200c 	ldr	r2, [sp, #12]
    b9e4:	e1a09000 	mov	r9, r0
    b9e8:	e1a01005 	mov	r1, r5
    b9ec:	e1a00002 	mov	r0, r2
    b9f0:	ebfffc2d 	bl	aaac <__aeabi_uidivmod>
    b9f4:	e00a0a99 	mul	sl, r9, sl
    b9f8:	e1a07807 	lsl	r7, r7, #16
    b9fc:	e1a07827 	lsr	r7, r7, #16
    ba00:	e1871801 	orr	r1, r7, r1, lsl #16
    ba04:	e15a0001 	cmp	sl, r1
    ba08:	9a000006 	bls	ba28 <__divdi3+0x288>
    ba0c:	e0918008 	adds	r8, r1, r8
    ba10:	e2493001 	sub	r3, r9, #1
    ba14:	2a000002 	bcs	ba24 <__divdi3+0x284>
    ba18:	e15a0008 	cmp	sl, r8
    ba1c:	82499002 	subhi	r9, r9, #2
    ba20:	8a000000 	bhi	ba28 <__divdi3+0x288>
    ba24:	e1a09003 	mov	r9, r3
    ba28:	e189380b 	orr	r3, r9, fp, lsl #16
    ba2c:	eaffffa7 	b	b8d0 <__divdi3+0x130>
    ba30:	e1e06006 	mvn	r6, r6
    ba34:	e2722000 	rsbs	r2, r2, #0
    ba38:	e2e33000 	rsc	r3, r3, #0
    ba3c:	eaffff62 	b	b7cc <__divdi3+0x2c>
    ba40:	e1a08318 	lsl	r8, r8, r3
    ba44:	e263b020 	rsb	fp, r3, #32
    ba48:	e1a04b39 	lsr	r4, r9, fp
    ba4c:	e1a0bb37 	lsr	fp, r7, fp
    ba50:	e1a05828 	lsr	r5, r8, #16
    ba54:	e1a01005 	mov	r1, r5
    ba58:	e1a00004 	mov	r0, r4
    ba5c:	e18bb319 	orr	fp, fp, r9, lsl r3
    ba60:	e1a07317 	lsl	r7, r7, r3
    ba64:	ebfffbd3 	bl	a9b8 <__aeabi_uidiv>
    ba68:	e1a01005 	mov	r1, r5
    ba6c:	e1a03000 	mov	r3, r0
    ba70:	e1a00004 	mov	r0, r4
    ba74:	e58d3004 	str	r3, [sp, #4]
    ba78:	ebfffc0b 	bl	aaac <__aeabi_uidivmod>
    ba7c:	e1a0a808 	lsl	sl, r8, #16
    ba80:	e59d3004 	ldr	r3, [sp, #4]
    ba84:	e1a0a82a 	lsr	sl, sl, #16
    ba88:	e000039a 	mul	r0, sl, r3
    ba8c:	e1a0282b 	lsr	r2, fp, #16
    ba90:	e1821801 	orr	r1, r2, r1, lsl #16
    ba94:	e1500001 	cmp	r0, r1
    ba98:	9a000006 	bls	bab8 <__divdi3+0x318>
    ba9c:	e0911008 	adds	r1, r1, r8
    baa0:	e2432001 	sub	r2, r3, #1
    baa4:	2a00006f 	bcs	bc68 <__divdi3+0x4c8>
    baa8:	e1500001 	cmp	r0, r1
    baac:	82433002 	subhi	r3, r3, #2
    bab0:	80811008 	addhi	r1, r1, r8
    bab4:	9a00006b 	bls	bc68 <__divdi3+0x4c8>
    bab8:	e0609001 	rsb	r9, r0, r1
    babc:	e1a00009 	mov	r0, r9
    bac0:	e1a01005 	mov	r1, r5
    bac4:	e58d3004 	str	r3, [sp, #4]
    bac8:	ebfffbba 	bl	a9b8 <__aeabi_uidiv>
    bacc:	e1a01005 	mov	r1, r5
    bad0:	e1a04000 	mov	r4, r0
    bad4:	e1a00009 	mov	r0, r9
    bad8:	ebfffbf3 	bl	aaac <__aeabi_uidivmod>
    badc:	e009049a 	mul	r9, sl, r4
    bae0:	e1a0b80b 	lsl	fp, fp, #16
    bae4:	e1a0b82b 	lsr	fp, fp, #16
    bae8:	e18b1801 	orr	r1, fp, r1, lsl #16
    baec:	e1590001 	cmp	r9, r1
    baf0:	e59d3004 	ldr	r3, [sp, #4]
    baf4:	9a000007 	bls	bb18 <__divdi3+0x378>
    baf8:	e0911008 	adds	r1, r1, r8
    bafc:	e2442001 	sub	r2, r4, #1
    bb00:	2a000003 	bcs	bb14 <__divdi3+0x374>
    bb04:	e1590001 	cmp	r9, r1
    bb08:	82444002 	subhi	r4, r4, #2
    bb0c:	80811008 	addhi	r1, r1, r8
    bb10:	8a000000 	bhi	bb18 <__divdi3+0x378>
    bb14:	e1a04002 	mov	r4, r2
    bb18:	e0699001 	rsb	r9, r9, r1
    bb1c:	e1844803 	orr	r4, r4, r3, lsl #16
    bb20:	eaffff96 	b	b980 <__divdi3+0x1e0>
    bb24:	e2653020 	rsb	r3, r5, #32
    bb28:	e1a0833a 	lsr	r8, sl, r3
    bb2c:	e1888511 	orr	r8, r8, r1, lsl r5
    bb30:	e1a0233b 	lsr	r2, fp, r3
    bb34:	e1a03337 	lsr	r3, r7, r3
    bb38:	e1a09828 	lsr	r9, r8, #16
    bb3c:	e1a01009 	mov	r1, r9
    bb40:	e1a00002 	mov	r0, r2
    bb44:	e183b51b 	orr	fp, r3, fp, lsl r5
    bb48:	e58d200c 	str	r2, [sp, #12]
    bb4c:	ebfffb99 	bl	a9b8 <__aeabi_uidiv>
    bb50:	e59d200c 	ldr	r2, [sp, #12]
    bb54:	e1a03000 	mov	r3, r0
    bb58:	e1a01009 	mov	r1, r9
    bb5c:	e1a00002 	mov	r0, r2
    bb60:	e58d3004 	str	r3, [sp, #4]
    bb64:	ebfffbd0 	bl	aaac <__aeabi_uidivmod>
    bb68:	e1a04808 	lsl	r4, r8, #16
    bb6c:	e59d3004 	ldr	r3, [sp, #4]
    bb70:	e1a04824 	lsr	r4, r4, #16
    bb74:	e0000394 	mul	r0, r4, r3
    bb78:	e1a0282b 	lsr	r2, fp, #16
    bb7c:	e1821801 	orr	r1, r2, r1, lsl #16
    bb80:	e1500001 	cmp	r0, r1
    bb84:	e1a0a51a 	lsl	sl, sl, r5
    bb88:	9a000006 	bls	bba8 <__divdi3+0x408>
    bb8c:	e0911008 	adds	r1, r1, r8
    bb90:	e2432001 	sub	r2, r3, #1
    bb94:	2a000031 	bcs	bc60 <__divdi3+0x4c0>
    bb98:	e1500001 	cmp	r0, r1
    bb9c:	82433002 	subhi	r3, r3, #2
    bba0:	80811008 	addhi	r1, r1, r8
    bba4:	9a00002d 	bls	bc60 <__divdi3+0x4c0>
    bba8:	e060c001 	rsb	ip, r0, r1
    bbac:	e1a0000c 	mov	r0, ip
    bbb0:	e1a01009 	mov	r1, r9
    bbb4:	e98d1008 	stmib	sp, {r3, ip}
    bbb8:	ebfffb7e 	bl	a9b8 <__aeabi_uidiv>
    bbbc:	e59dc008 	ldr	ip, [sp, #8]
    bbc0:	e1a02000 	mov	r2, r0
    bbc4:	e1a01009 	mov	r1, r9
    bbc8:	e1a0000c 	mov	r0, ip
    bbcc:	e58d200c 	str	r2, [sp, #12]
    bbd0:	ebfffbb5 	bl	aaac <__aeabi_uidivmod>
    bbd4:	e59d200c 	ldr	r2, [sp, #12]
    bbd8:	e0040492 	mul	r4, r2, r4
    bbdc:	e1a0b80b 	lsl	fp, fp, #16
    bbe0:	e1a0c82b 	lsr	ip, fp, #16
    bbe4:	e18cc801 	orr	ip, ip, r1, lsl #16
    bbe8:	e154000c 	cmp	r4, ip
    bbec:	e59d3004 	ldr	r3, [sp, #4]
    bbf0:	9a000006 	bls	bc10 <__divdi3+0x470>
    bbf4:	e09cc008 	adds	ip, ip, r8
    bbf8:	e2421001 	sub	r1, r2, #1
    bbfc:	2a000015 	bcs	bc58 <__divdi3+0x4b8>
    bc00:	e154000c 	cmp	r4, ip
    bc04:	82422002 	subhi	r2, r2, #2
    bc08:	808cc008 	addhi	ip, ip, r8
    bc0c:	9a000011 	bls	bc58 <__divdi3+0x4b8>
    bc10:	e1821803 	orr	r1, r2, r3, lsl #16
    bc14:	e0832a91 	umull	r2, r3, r1, sl
    bc18:	e064400c 	rsb	r4, r4, ip
    bc1c:	e1540003 	cmp	r4, r3
    bc20:	3a000007 	bcc	bc44 <__divdi3+0x4a4>
    bc24:	13a04000 	movne	r4, #0
    bc28:	03a04001 	moveq	r4, #1
    bc2c:	e1520517 	cmp	r2, r7, lsl r5
    bc30:	93a04000 	movls	r4, #0
    bc34:	82044001 	andhi	r4, r4, #1
    bc38:	e3540000 	cmp	r4, #0
    bc3c:	01a03001 	moveq	r3, r1
    bc40:	0affff22 	beq	b8d0 <__divdi3+0x130>
    bc44:	e2413001 	sub	r3, r1, #1
    bc48:	e3a04000 	mov	r4, #0
    bc4c:	eaffff1f 	b	b8d0 <__divdi3+0x130>
    bc50:	e1a0b003 	mov	fp, r3
    bc54:	eaffff5c 	b	b9cc <__divdi3+0x22c>
    bc58:	e1a02001 	mov	r2, r1
    bc5c:	eaffffeb 	b	bc10 <__divdi3+0x470>
    bc60:	e1a03002 	mov	r3, r2
    bc64:	eaffffcf 	b	bba8 <__divdi3+0x408>
    bc68:	e1a03002 	mov	r3, r2
    bc6c:	eaffff91 	b	bab8 <__divdi3+0x318>

0000bc70 <__udivdi3>:
    bc70:	e92d4ff0 	push	{r4, r5, r6, r7, r8, r9, sl, fp, lr}
    bc74:	e3530000 	cmp	r3, #0
    bc78:	e24dd00c 	sub	sp, sp, #12
    bc7c:	e1a07003 	mov	r7, r3
    bc80:	e1a08000 	mov	r8, r0
    bc84:	e1a05001 	mov	r5, r1
    bc88:	e1a06002 	mov	r6, r2
    bc8c:	e1a04002 	mov	r4, r2
    bc90:	e1a09000 	mov	r9, r0
    bc94:	e1a0a001 	mov	sl, r1
    bc98:	1a00003a 	bne	bd88 <__udivdi3+0x118>
    bc9c:	e1520001 	cmp	r2, r1
    bca0:	9a000048 	bls	bdc8 <__udivdi3+0x158>
    bca4:	e1a00002 	mov	r0, r2
    bca8:	eb00010c 	bl	c0e0 <__clzsi2>
    bcac:	e3500000 	cmp	r0, #0
    bcb0:	1260a020 	rsbne	sl, r0, #32
    bcb4:	11a0aa38 	lsrne	sl, r8, sl
    bcb8:	11a04016 	lslne	r4, r6, r0
    bcbc:	118aa015 	orrne	sl, sl, r5, lsl r0
    bcc0:	e1a05824 	lsr	r5, r4, #16
    bcc4:	11a09018 	lslne	r9, r8, r0
    bcc8:	e1a01005 	mov	r1, r5
    bccc:	e1a0000a 	mov	r0, sl
    bcd0:	ebfffb38 	bl	a9b8 <__aeabi_uidiv>
    bcd4:	e1a01005 	mov	r1, r5
    bcd8:	e1a07000 	mov	r7, r0
    bcdc:	e1a0000a 	mov	r0, sl
    bce0:	ebfffb71 	bl	aaac <__aeabi_uidivmod>
    bce4:	e1a08804 	lsl	r8, r4, #16
    bce8:	e1a08828 	lsr	r8, r8, #16
    bcec:	e0000798 	mul	r0, r8, r7
    bcf0:	e1a03829 	lsr	r3, r9, #16
    bcf4:	e1831801 	orr	r1, r3, r1, lsl #16
    bcf8:	e1500001 	cmp	r0, r1
    bcfc:	9a000007 	bls	bd20 <__udivdi3+0xb0>
    bd00:	e0911004 	adds	r1, r1, r4
    bd04:	e2472001 	sub	r2, r7, #1
    bd08:	2a000003 	bcs	bd1c <__udivdi3+0xac>
    bd0c:	e1500001 	cmp	r0, r1
    bd10:	82477002 	subhi	r7, r7, #2
    bd14:	80811004 	addhi	r1, r1, r4
    bd18:	8a000000 	bhi	bd20 <__udivdi3+0xb0>
    bd1c:	e1a07002 	mov	r7, r2
    bd20:	e060a001 	rsb	sl, r0, r1
    bd24:	e1a0000a 	mov	r0, sl
    bd28:	e1a01005 	mov	r1, r5
    bd2c:	ebfffb21 	bl	a9b8 <__aeabi_uidiv>
    bd30:	e1a01005 	mov	r1, r5
    bd34:	e1a06000 	mov	r6, r0
    bd38:	e1a0000a 	mov	r0, sl
    bd3c:	ebfffb5a 	bl	aaac <__aeabi_uidivmod>
    bd40:	e0080896 	mul	r8, r6, r8
    bd44:	e1a09809 	lsl	r9, r9, #16
    bd48:	e1a09829 	lsr	r9, r9, #16
    bd4c:	e1891801 	orr	r1, r9, r1, lsl #16
    bd50:	e1580001 	cmp	r8, r1
    bd54:	9a000005 	bls	bd70 <__udivdi3+0x100>
    bd58:	e0914004 	adds	r4, r1, r4
    bd5c:	e2463001 	sub	r3, r6, #1
    bd60:	2a0000cc 	bcs	c098 <__udivdi3+0x428>
    bd64:	e1580004 	cmp	r8, r4
    bd68:	82466002 	subhi	r6, r6, #2
    bd6c:	9a0000c9 	bls	c098 <__udivdi3+0x428>
    bd70:	e1860807 	orr	r0, r6, r7, lsl #16
    bd74:	e3a06000 	mov	r6, #0
    bd78:	e1a01006 	mov	r1, r6
    bd7c:	e28dd00c 	add	sp, sp, #12
    bd80:	e8bd4ff0 	pop	{r4, r5, r6, r7, r8, r9, sl, fp, lr}
    bd84:	e12fff1e 	bx	lr
    bd88:	e1530001 	cmp	r3, r1
    bd8c:	83a06000 	movhi	r6, #0
    bd90:	81a00006 	movhi	r0, r6
    bd94:	8afffff7 	bhi	bd78 <__udivdi3+0x108>
    bd98:	e1a00003 	mov	r0, r3
    bd9c:	eb0000cf 	bl	c0e0 <__clzsi2>
    bda0:	e2509000 	subs	r9, r0, #0
    bda4:	1a000042 	bne	beb4 <__udivdi3+0x244>
    bda8:	e1570005 	cmp	r7, r5
    bdac:	21560008 	cmpcs	r6, r8
    bdb0:	83a06000 	movhi	r6, #0
    bdb4:	93a06001 	movls	r6, #1
    bdb8:	93a00001 	movls	r0, #1
    bdbc:	91a06009 	movls	r6, r9
    bdc0:	81a00006 	movhi	r0, r6
    bdc4:	eaffffeb 	b	bd78 <__udivdi3+0x108>
    bdc8:	e3520000 	cmp	r2, #0
    bdcc:	1a000003 	bne	bde0 <__udivdi3+0x170>
    bdd0:	e1a01002 	mov	r1, r2
    bdd4:	e3a00001 	mov	r0, #1
    bdd8:	ebfffaf6 	bl	a9b8 <__aeabi_uidiv>
    bddc:	e1a04000 	mov	r4, r0
    bde0:	e1a00004 	mov	r0, r4
    bde4:	eb0000bd 	bl	c0e0 <__clzsi2>
    bde8:	e2503000 	subs	r3, r0, #0
    bdec:	1a000074 	bne	bfc4 <__udivdi3+0x354>
    bdf0:	e1a0a804 	lsl	sl, r4, #16
    bdf4:	e0645005 	rsb	r5, r4, r5
    bdf8:	e1a0a82a 	lsr	sl, sl, #16
    bdfc:	e1a07824 	lsr	r7, r4, #16
    be00:	e3a06001 	mov	r6, #1
    be04:	e1a01007 	mov	r1, r7
    be08:	e1a00005 	mov	r0, r5
    be0c:	ebfffae9 	bl	a9b8 <__aeabi_uidiv>
    be10:	e1a01007 	mov	r1, r7
    be14:	e1a08000 	mov	r8, r0
    be18:	e1a00005 	mov	r0, r5
    be1c:	ebfffb22 	bl	aaac <__aeabi_uidivmod>
    be20:	e000089a 	mul	r0, sl, r8
    be24:	e1a03829 	lsr	r3, r9, #16
    be28:	e1831801 	orr	r1, r3, r1, lsl #16
    be2c:	e1500001 	cmp	r0, r1
    be30:	9a000006 	bls	be50 <__udivdi3+0x1e0>
    be34:	e0911004 	adds	r1, r1, r4
    be38:	e2482001 	sub	r2, r8, #1
    be3c:	2a000097 	bcs	c0a0 <__udivdi3+0x430>
    be40:	e1500001 	cmp	r0, r1
    be44:	82488002 	subhi	r8, r8, #2
    be48:	80811004 	addhi	r1, r1, r4
    be4c:	9a000093 	bls	c0a0 <__udivdi3+0x430>
    be50:	e060b001 	rsb	fp, r0, r1
    be54:	e1a0000b 	mov	r0, fp
    be58:	e1a01007 	mov	r1, r7
    be5c:	ebfffad5 	bl	a9b8 <__aeabi_uidiv>
    be60:	e1a01007 	mov	r1, r7
    be64:	e1a05000 	mov	r5, r0
    be68:	e1a0000b 	mov	r0, fp
    be6c:	ebfffb0e 	bl	aaac <__aeabi_uidivmod>
    be70:	e00a0a95 	mul	sl, r5, sl
    be74:	e1a09809 	lsl	r9, r9, #16
    be78:	e1a09829 	lsr	r9, r9, #16
    be7c:	e1891801 	orr	r1, r9, r1, lsl #16
    be80:	e15a0001 	cmp	sl, r1
    be84:	9a000005 	bls	bea0 <__udivdi3+0x230>
    be88:	e0914004 	adds	r4, r1, r4
    be8c:	e2453001 	sub	r3, r5, #1
    be90:	2a000084 	bcs	c0a8 <__udivdi3+0x438>
    be94:	e15a0004 	cmp	sl, r4
    be98:	82455002 	subhi	r5, r5, #2
    be9c:	9a000081 	bls	c0a8 <__udivdi3+0x438>
    bea0:	e1850808 	orr	r0, r5, r8, lsl #16
    bea4:	e1a01006 	mov	r1, r6
    bea8:	e28dd00c 	add	sp, sp, #12
    beac:	e8bd4ff0 	pop	{r4, r5, r6, r7, r8, r9, sl, fp, lr}
    beb0:	e12fff1e 	bx	lr
    beb4:	e2693020 	rsb	r3, r9, #32
    beb8:	e1a02336 	lsr	r2, r6, r3
    bebc:	e1827917 	orr	r7, r2, r7, lsl r9
    bec0:	e1a02335 	lsr	r2, r5, r3
    bec4:	e1a03338 	lsr	r3, r8, r3
    bec8:	e1a04827 	lsr	r4, r7, #16
    becc:	e1a01004 	mov	r1, r4
    bed0:	e1a00002 	mov	r0, r2
    bed4:	e1835915 	orr	r5, r3, r5, lsl r9
    bed8:	e58d2004 	str	r2, [sp, #4]
    bedc:	ebfffab5 	bl	a9b8 <__aeabi_uidiv>
    bee0:	e59d2004 	ldr	r2, [sp, #4]
    bee4:	e1a0b000 	mov	fp, r0
    bee8:	e1a01004 	mov	r1, r4
    beec:	e1a00002 	mov	r0, r2
    bef0:	ebfffaed 	bl	aaac <__aeabi_uidivmod>
    bef4:	e1a0a807 	lsl	sl, r7, #16
    bef8:	e1a0a82a 	lsr	sl, sl, #16
    befc:	e0000b9a 	mul	r0, sl, fp
    bf00:	e1a03825 	lsr	r3, r5, #16
    bf04:	e1831801 	orr	r1, r3, r1, lsl #16
    bf08:	e1500001 	cmp	r0, r1
    bf0c:	e1a06916 	lsl	r6, r6, r9
    bf10:	9a000003 	bls	bf24 <__udivdi3+0x2b4>
    bf14:	e0911007 	adds	r1, r1, r7
    bf18:	e24b2001 	sub	r2, fp, #1
    bf1c:	3a000068 	bcc	c0c4 <__udivdi3+0x454>
    bf20:	e1a0b002 	mov	fp, r2
    bf24:	e0603001 	rsb	r3, r0, r1
    bf28:	e1a00003 	mov	r0, r3
    bf2c:	e1a01004 	mov	r1, r4
    bf30:	e58d3004 	str	r3, [sp, #4]
    bf34:	ebfffa9f 	bl	a9b8 <__aeabi_uidiv>
    bf38:	e59d3004 	ldr	r3, [sp, #4]
    bf3c:	e1a02000 	mov	r2, r0
    bf40:	e1a01004 	mov	r1, r4
    bf44:	e1a00003 	mov	r0, r3
    bf48:	e58d2004 	str	r2, [sp, #4]
    bf4c:	ebfffad6 	bl	aaac <__aeabi_uidivmod>
    bf50:	e59d2004 	ldr	r2, [sp, #4]
    bf54:	e00a0a92 	mul	sl, r2, sl
    bf58:	e1a05805 	lsl	r5, r5, #16
    bf5c:	e1a05825 	lsr	r5, r5, #16
    bf60:	e1851801 	orr	r1, r5, r1, lsl #16
    bf64:	e15a0001 	cmp	sl, r1
    bf68:	9a000003 	bls	bf7c <__udivdi3+0x30c>
    bf6c:	e0911007 	adds	r1, r1, r7
    bf70:	e2423001 	sub	r3, r2, #1
    bf74:	3a00004d 	bcc	c0b0 <__udivdi3+0x440>
    bf78:	e1a02003 	mov	r2, r3
    bf7c:	e182080b 	orr	r0, r2, fp, lsl #16
    bf80:	e0854690 	umull	r4, r5, r0, r6
    bf84:	e06aa001 	rsb	sl, sl, r1
    bf88:	e15a0005 	cmp	sl, r5
    bf8c:	3a000006 	bcc	bfac <__udivdi3+0x33c>
    bf90:	13a06000 	movne	r6, #0
    bf94:	03a06001 	moveq	r6, #1
    bf98:	e1540918 	cmp	r4, r8, lsl r9
    bf9c:	93a06000 	movls	r6, #0
    bfa0:	82066001 	andhi	r6, r6, #1
    bfa4:	e3560000 	cmp	r6, #0
    bfa8:	0affff72 	beq	bd78 <__udivdi3+0x108>
    bfac:	e3a06000 	mov	r6, #0
    bfb0:	e2400001 	sub	r0, r0, #1
    bfb4:	e1a01006 	mov	r1, r6
    bfb8:	e28dd00c 	add	sp, sp, #12
    bfbc:	e8bd4ff0 	pop	{r4, r5, r6, r7, r8, r9, sl, fp, lr}
    bfc0:	e12fff1e 	bx	lr
    bfc4:	e1a04314 	lsl	r4, r4, r3
    bfc8:	e263b020 	rsb	fp, r3, #32
    bfcc:	e1a06b35 	lsr	r6, r5, fp
    bfd0:	e1a0bb38 	lsr	fp, r8, fp
    bfd4:	e1a07824 	lsr	r7, r4, #16
    bfd8:	e1a01007 	mov	r1, r7
    bfdc:	e1a00006 	mov	r0, r6
    bfe0:	e1a09318 	lsl	r9, r8, r3
    bfe4:	e18bb315 	orr	fp, fp, r5, lsl r3
    bfe8:	ebfffa72 	bl	a9b8 <__aeabi_uidiv>
    bfec:	e1a01007 	mov	r1, r7
    bff0:	e1a08000 	mov	r8, r0
    bff4:	e1a00006 	mov	r0, r6
    bff8:	ebfffaab 	bl	aaac <__aeabi_uidivmod>
    bffc:	e1a0a804 	lsl	sl, r4, #16
    c000:	e1a0a82a 	lsr	sl, sl, #16
    c004:	e000089a 	mul	r0, sl, r8
    c008:	e1a0382b 	lsr	r3, fp, #16
    c00c:	e1831801 	orr	r1, r3, r1, lsl #16
    c010:	e1500001 	cmp	r0, r1
    c014:	9a000006 	bls	c034 <__udivdi3+0x3c4>
    c018:	e0911004 	adds	r1, r1, r4
    c01c:	e2483001 	sub	r3, r8, #1
    c020:	2a00002c 	bcs	c0d8 <__udivdi3+0x468>
    c024:	e1500001 	cmp	r0, r1
    c028:	82488002 	subhi	r8, r8, #2
    c02c:	80811004 	addhi	r1, r1, r4
    c030:	9a000028 	bls	c0d8 <__udivdi3+0x468>
    c034:	e0605001 	rsb	r5, r0, r1
    c038:	e1a00005 	mov	r0, r5
    c03c:	e1a01007 	mov	r1, r7
    c040:	ebfffa5c 	bl	a9b8 <__aeabi_uidiv>
    c044:	e1a01007 	mov	r1, r7
    c048:	e1a06000 	mov	r6, r0
    c04c:	e1a00005 	mov	r0, r5
    c050:	ebfffa95 	bl	aaac <__aeabi_uidivmod>
    c054:	e005069a 	mul	r5, sl, r6
    c058:	e1a0b80b 	lsl	fp, fp, #16
    c05c:	e1a0b82b 	lsr	fp, fp, #16
    c060:	e18b1801 	orr	r1, fp, r1, lsl #16
    c064:	e1550001 	cmp	r5, r1
    c068:	9a000007 	bls	c08c <__udivdi3+0x41c>
    c06c:	e0911004 	adds	r1, r1, r4
    c070:	e2463001 	sub	r3, r6, #1
    c074:	2a000003 	bcs	c088 <__udivdi3+0x418>
    c078:	e1550001 	cmp	r5, r1
    c07c:	82466002 	subhi	r6, r6, #2
    c080:	80811004 	addhi	r1, r1, r4
    c084:	8a000000 	bhi	c08c <__udivdi3+0x41c>
    c088:	e1a06003 	mov	r6, r3
    c08c:	e0655001 	rsb	r5, r5, r1
    c090:	e1866808 	orr	r6, r6, r8, lsl #16
    c094:	eaffff5a 	b	be04 <__udivdi3+0x194>
    c098:	e1a06003 	mov	r6, r3
    c09c:	eaffff33 	b	bd70 <__udivdi3+0x100>
    c0a0:	e1a08002 	mov	r8, r2
    c0a4:	eaffff69 	b	be50 <__udivdi3+0x1e0>
    c0a8:	e1a05003 	mov	r5, r3
    c0ac:	eaffff7b 	b	bea0 <__udivdi3+0x230>
    c0b0:	e15a0001 	cmp	sl, r1
    c0b4:	82422002 	subhi	r2, r2, #2
    c0b8:	80811007 	addhi	r1, r1, r7
    c0bc:	8affffae 	bhi	bf7c <__udivdi3+0x30c>
    c0c0:	eaffffac 	b	bf78 <__udivdi3+0x308>
    c0c4:	e1500001 	cmp	r0, r1
    c0c8:	824bb002 	subhi	fp, fp, #2
    c0cc:	80811007 	addhi	r1, r1, r7
    c0d0:	8affff93 	bhi	bf24 <__udivdi3+0x2b4>
    c0d4:	eaffff91 	b	bf20 <__udivdi3+0x2b0>
    c0d8:	e1a08003 	mov	r8, r3
    c0dc:	eaffffd4 	b	c034 <__udivdi3+0x3c4>

0000c0e0 <__clzsi2>:
    c0e0:	e3a0101c 	mov	r1, #28
    c0e4:	e3500801 	cmp	r0, #65536	; 0x10000
    c0e8:	21a00820 	lsrcs	r0, r0, #16
    c0ec:	22411010 	subcs	r1, r1, #16
    c0f0:	e3500c01 	cmp	r0, #256	; 0x100
    c0f4:	21a00420 	lsrcs	r0, r0, #8
    c0f8:	22411008 	subcs	r1, r1, #8
    c0fc:	e3500010 	cmp	r0, #16
    c100:	21a00220 	lsrcs	r0, r0, #4
    c104:	22411004 	subcs	r1, r1, #4
    c108:	e28f2008 	add	r2, pc, #8
    c10c:	e7d20000 	ldrb	r0, [r2, r0]
    c110:	e0800001 	add	r0, r0, r1
    c114:	e12fff1e 	bx	lr
    c118:	02020304 	andeq	r0, r2, #4, 6	; 0x10000000
    c11c:	01010101 	tsteq	r1, r1, lsl #2
	...

Disassembly of section .fini:

0000c128 <_fini>:
    c128:	e92d4001 	push	{r0, lr}
    c12c:	e8bd4001 	pop	{r0, lr}
    c130:	e31e0001 	tst	lr, #1
    c134:	01a0f00e 	moveq	pc, lr
    c138:	e12fff1e 	bx	lr

Disassembly of section .rodata:

0000c13c <states-0x19>:
    c13c:	6c6c6568 	cfstr64vs	mvdx6, [ip], #-416	; 0xfffffe60
    c140:	7266206f 	rsbvc	r2, r6, #111	; 0x6f
    c144:	79206d6f 	stmdbvc	r0!, {r0, r1, r2, r3, r5, r6, r8, sl, fp, sp, lr}
    c148:	2072756f 	rsbscs	r7, r2, pc, ror #10
    c14c:	636f7270 	cmnvs	pc, #112, 4
    c150:	0a737365 	beq	1ce8eec <_stack+0x1c68eec>
	...

0000c155 <states>:
    c155:	000a0011 	andeq	r0, sl, r1, lsl r0
    c159:	00111111 	andseq	r1, r1, r1, lsl r1
    c15d:	05000000 	streq	r0, [r0, #-0]
    c161:	00000000 	andeq	r0, r0, r0
    c165:	00090000 	andeq	r0, r9, r0
    c169:	0b000000 	bleq	c171 <states+0x1c>
	...
    c175:	0a0f0011 	beq	3cc1c1 <_stack+0x34c1c1>
    c179:	03111111 	tsteq	r1, #1073741828	; 0x40000004
    c17d:	0100070a 	tsteq	r0, sl, lsl #14
    c181:	0b0b0913 	bleq	2ce5d5 <_stack+0x24e5d5>
    c185:	06090000 	streq	r0, [r9], -r0
    c189:	0b00000b 	bleq	c1bd <states+0x68>
    c18d:	00110600 	andseq	r0, r1, r0, lsl #12
    c191:	11110000 	tstne	r1, r0
    c195:	00000011 	andeq	r0, r0, r1, lsl r0
	...
    c1a5:	00000b00 	andeq	r0, r0, r0, lsl #22
    c1a9:	00000000 	andeq	r0, r0, r0
    c1ad:	00110000 	andseq	r0, r1, r0
    c1b1:	11110a0a 	tstne	r1, sl, lsl #20
    c1b5:	000a0011 	andeq	r0, sl, r1, lsl r0
    c1b9:	09000200 	stmdbeq	r0, {r9}
    c1bd:	0000000b 	andeq	r0, r0, fp
    c1c1:	000b0009 	andeq	r0, fp, r9
    c1c5:	00000b00 	andeq	r0, r0, r0, lsl #22
	...
    c1dd:	0c000000 	stceq	0, cr0, [r0], {-0}
	...
    c1e9:	0c000000 	stceq	0, cr0, [r0], {-0}
    c1ed:	00000000 	andeq	r0, r0, r0
    c1f1:	0000000c 	andeq	r0, r0, ip
    c1f5:	000c0900 	andeq	r0, ip, r0, lsl #18
    c1f9:	00000000 	andeq	r0, r0, r0
    c1fd:	0c00000c 	stceq	0, cr0, [r0], {12}
	...
    c219:	00000e00 	andeq	r0, r0, r0, lsl #28
	...
    c225:	00000d00 	andeq	r0, r0, r0, lsl #26
    c229:	000d0400 	andeq	r0, sp, r0, lsl #8
    c22d:	09000000 	stmdbeq	r0, {}	; <UNPREDICTABLE>
    c231:	0000000e 	andeq	r0, r0, lr
    c235:	000e0000 	andeq	r0, lr, r0
    c239:	00000e00 	andeq	r0, r0, r0, lsl #28
	...
    c251:	10000000 	andne	r0, r0, r0
	...
    c25d:	0f000000 	svceq	0x00000000
    c261:	00000000 	andeq	r0, r0, r0
    c265:	0000000f 	andeq	r0, r0, pc
    c269:	00100900 	andseq	r0, r0, r0, lsl #18
    c26d:	00000000 	andeq	r0, r0, r0
    c271:	10000010 	andne	r0, r0, r0, lsl r0
    c275:	00120000 	andseq	r0, r2, r0
    c279:	12120000 	andsne	r0, r2, #0
    c27d:	00000012 	andeq	r0, r0, r2, lsl r0
	...
    c295:	00120000 	andseq	r0, r2, r0
    c299:	12120000 	andsne	r0, r2, #0
    c29d:	00000012 	andeq	r0, r0, r2, lsl r0
    c2a1:	09000000 	stmdbeq	r0, {}	; <UNPREDICTABLE>
	...
    c2c5:	0b000000 	bleq	c2cd <states+0x178>
	...
    c2d1:	0a000000 	beq	c2d9 <states+0x184>
    c2d5:	00000000 	andeq	r0, r0, r0
    c2d9:	0000000a 	andeq	r0, r0, sl
    c2dd:	000b0900 	andeq	r0, fp, r0, lsl #18
    c2e1:	00000000 	andeq	r0, r0, r0
    c2e5:	0b00000b 	bleq	c319 <states+0x1c4>
	...
    c301:	00000c00 	andeq	r0, r0, r0, lsl #24
	...
    c30d:	00000c00 	andeq	r0, r0, r0, lsl #24
    c311:	000c0000 	andeq	r0, ip, r0
    c315:	09000000 	stmdbeq	r0, {}	; <UNPREDICTABLE>
    c319:	0000000c 	andeq	r0, r0, ip
    c31d:	000c0000 	andeq	r0, ip, r0
    c321:	00000c00 	andeq	r0, r0, r0, lsl #24

0000c325 <xdigits>:
    c325:	33323130 	teqcc	r2, #48, 2
    c329:	37363534 			; <UNDEFINED> instruction: 0x37363534
    c32d:	42413938 	submi	r3, r1, #56, 18	; 0xe0000
    c331:	46454443 	strbmi	r4, [r5], -r3, asr #8
    c335:	20202b2d 	eorcs	r2, r0, sp, lsr #22
    c339:	30583020 	subscc	r3, r8, r0, lsr #32
    c33d:	6e280078 	mcrvs	0, 1, r0, cr8, cr8, {3}
    c341:	296c6c75 	stmdbcs	ip!, {r0, r2, r4, r5, r6, sl, fp, sp, lr}^
    c345:	58302d00 	ldmdapl	r0!, {r8, sl, fp, sp}
    c349:	2058302b 	subscs	r3, r8, fp, lsr #32
    c34d:	302d5830 	eorcc	r5, sp, r0, lsr r8
    c351:	78302b78 	ldmdavc	r0!, {r3, r4, r5, r6, r8, r9, fp, sp}
    c355:	00783020 	rsbseq	r3, r8, r0, lsr #32
    c359:	00464e49 	subeq	r4, r6, r9, asr #28
    c35d:	004e414e 	subeq	r4, lr, lr, asr #2
    c361:	006e616e 	rsbeq	r6, lr, lr, ror #2
    c365:	00666e69 	rsbeq	r6, r6, r9, ror #28
    c369:	e800002e 	stmda	r0, {r1, r2, r3, r5}

0000c36c <__stdout_used>:
    c36c:	00014ae8 	andeq	r4, r1, r8, ror #21

0000c370 <stdout>:
    c370:	00014ae8 	andeq	r4, r1, r8, ror #21

0000c374 <__towrite_used>:
    c374:	00000001 	andeq	r0, r0, r1

0000c378 <errmsg>:
    c378:	656c6c49 	strbvs	r6, [ip, #-3145]!	; 0xc49
    c37c:	206c6167 	rsbcs	r6, ip, r7, ror #2
    c380:	65747962 	ldrbvs	r7, [r4, #-2402]!	; 0x962
    c384:	71657320 	cmnvc	r5, r0, lsr #6
    c388:	636e6575 	cmnvs	lr, #490733568	; 0x1d400000
    c38c:	6f440065 	svcvs	0x00440065
    c390:	6e69616d 	powvsez	f6, f1, #5.0
    c394:	72726520 	rsbsvc	r6, r2, #32, 10	; 0x8000000
    c398:	5200726f 	andpl	r7, r0, #-268435450	; 0xf0000006
    c39c:	6c757365 	ldclvs	3, cr7, [r5], #-404	; 0xfffffe6c
    c3a0:	6f6e2074 	svcvs	0x006e2074
    c3a4:	65722074 	ldrbvs	r2, [r2, #-116]!	; 0x74
    c3a8:	73657270 	cmnvc	r5, #112, 4
    c3ac:	61746e65 	cmnvs	r4, r5, ror #28
    c3b0:	00656c62 	rsbeq	r6, r5, r2, ror #24
    c3b4:	20746f4e 	rsbscs	r6, r4, lr, asr #30
    c3b8:	74742061 	ldrbtvc	r2, [r4], #-97	; 0x61
    c3bc:	65500079 	ldrbvs	r0, [r0, #-121]	; 0x79
    c3c0:	73696d72 	cmnvc	r9, #7296	; 0x1c80
    c3c4:	6e6f6973 	mcrvs	9, 3, r6, cr15, cr3, {3}
    c3c8:	6e656420 	cdpvs	4, 6, cr6, cr5, cr0, {1}
    c3cc:	00646569 	rsbeq	r6, r4, r9, ror #10
    c3d0:	7265704f 	rsbvc	r7, r5, #79	; 0x4f
    c3d4:	6f697461 	svcvs	0x00697461
    c3d8:	6f6e206e 	svcvs	0x006e206e
    c3dc:	65702074 	ldrbvs	r2, [r0, #-116]!	; 0x74
    c3e0:	74696d72 	strbtvc	r6, [r9], #-3442	; 0xd72
    c3e4:	00646574 	rsbeq	r6, r4, r4, ror r5
    c3e8:	73206f4e 	teqvc	r0, #312	; 0x138
    c3ec:	20686375 	rsbcs	r6, r8, r5, ror r3
    c3f0:	656c6966 	strbvs	r6, [ip, #-2406]!	; 0x966
    c3f4:	20726f20 	rsbscs	r6, r2, r0, lsr #30
    c3f8:	65726964 	ldrbvs	r6, [r2, #-2404]!	; 0x964
    c3fc:	726f7463 	rsbvc	r7, pc, #1660944384	; 0x63000000
    c400:	6f4e0079 	svcvs	0x004e0079
    c404:	63757320 	cmnvs	r5, #32, 6	; 0x80000000
    c408:	72702068 	rsbsvc	r2, r0, #104	; 0x68
    c40c:	7365636f 	cmnvc	r5, #-1140850687	; 0xbc000001
    c410:	69460073 	stmdbvs	r6, {r0, r1, r4, r5, r6}^
    c414:	6520656c 	strvs	r6, [r0, #-1388]!	; 0x56c
    c418:	74736978 	ldrbtvc	r6, [r3], #-2424	; 0x978
    c41c:	61560073 	cmpvs	r6, r3, ror r0
    c420:	2065756c 	rsbcs	r7, r5, ip, ror #10
    c424:	206f6f74 	rsbcs	r6, pc, r4, ror pc	; <UNPREDICTABLE>
    c428:	6772616c 	ldrbvs	r6, [r2, -ip, ror #2]!
    c42c:	6f662065 	svcvs	0x00662065
    c430:	61642072 	smcvs	16898	; 0x4202
    c434:	74206174 	strtvc	r6, [r0], #-372	; 0x174
    c438:	00657079 	rsbeq	r7, r5, r9, ror r0
    c43c:	73206f4e 	teqvc	r0, #312	; 0x138
    c440:	65636170 	strbvs	r6, [r3, #-368]!	; 0x170
    c444:	66656c20 	strbtvs	r6, [r5], -r0, lsr #24
    c448:	6e6f2074 	mcrvs	0, 3, r2, cr15, cr4, {3}
    c44c:	76656420 	strbtvc	r6, [r5], -r0, lsr #8
    c450:	00656369 	rsbeq	r6, r5, r9, ror #6
    c454:	2074754f 	rsbscs	r7, r4, pc, asr #10
    c458:	6d20666f 	stcvs	6, cr6, [r0, #-444]!	; 0xfffffe44
    c45c:	726f6d65 	rsbvc	r6, pc, #6464	; 0x1940
    c460:	65520079 	ldrbvs	r0, [r2, #-121]	; 0x79
    c464:	72756f73 	rsbsvc	r6, r5, #460	; 0x1cc
    c468:	62206563 	eorvs	r6, r0, #415236096	; 0x18c00000
    c46c:	00797375 	rsbseq	r7, r9, r5, ror r3
    c470:	65746e49 	ldrbvs	r6, [r4, #-3657]!	; 0xe49
    c474:	70757272 	rsbsvc	r7, r5, r2, ror r2
    c478:	20646574 	rsbcs	r6, r4, r4, ror r5
    c47c:	74737973 	ldrbtvc	r7, [r3], #-2419	; 0x973
    c480:	63206d65 	teqvs	r0, #6464	; 0x1940
    c484:	006c6c61 	rsbeq	r6, ip, r1, ror #24
    c488:	6f736552 	svcvs	0x00736552
    c48c:	65637275 	strbvs	r7, [r3, #-629]!	; 0x275
    c490:	6d657420 	cfstrdvs	mvd7, [r5, #-128]!	; 0xffffff80
    c494:	61726f70 	cmnvs	r2, r0, ror pc
    c498:	796c6972 	stmdbvc	ip!, {r1, r4, r5, r6, r8, fp, sp, lr}^
    c49c:	616e7520 	cmnvs	lr, r0, lsr #10
    c4a0:	6c696176 	stfvse	f6, [r9], #-472	; 0xfffffe28
    c4a4:	656c6261 	strbvs	r6, [ip, #-609]!	; 0x261
    c4a8:	766e4900 	strbtvc	r4, [lr], -r0, lsl #18
    c4ac:	64696c61 	strbtvs	r6, [r9], #-3169	; 0xc61
    c4b0:	65657320 	strbvs	r7, [r5, #-800]!	; 0x320
    c4b4:	7243006b 	subvc	r0, r3, #107	; 0x6b
    c4b8:	2d73736f 	ldclcs	3, cr7, [r3, #-444]!	; 0xfffffe44
    c4bc:	69766564 	ldmdbvs	r6!, {r2, r5, r6, r8, sl, sp, lr}^
    c4c0:	6c206563 	cfstr32vs	mvfx6, [r0], #-396	; 0xfffffe74
    c4c4:	006b6e69 	rsbeq	r6, fp, r9, ror #28
    c4c8:	64616552 	strbtvs	r6, [r1], #-1362	; 0x552
    c4cc:	6c6e6f2d 	stclvs	15, cr6, [lr], #-180	; 0xffffff4c
    c4d0:	69662079 	stmdbvs	r6!, {r0, r3, r4, r5, r6, sp}^
    c4d4:	7320656c 	teqvc	r0, #108, 10	; 0x1b000000
    c4d8:	65747379 	ldrbvs	r7, [r4, #-889]!	; 0x379
    c4dc:	6944006d 	stmdbvs	r4, {r0, r2, r3, r5, r6}^
    c4e0:	74636572 	strbtvc	r6, [r3], #-1394	; 0x572
    c4e4:	2079726f 	rsbscs	r7, r9, pc, ror #4
    c4e8:	20746f6e 	rsbscs	r6, r4, lr, ror #30
    c4ec:	74706d65 	ldrbtvc	r6, [r0], #-3429	; 0xd65
    c4f0:	6f430079 	svcvs	0x00430079
    c4f4:	63656e6e 	cmnvs	r5, #1760	; 0x6e0
    c4f8:	6e6f6974 	mcrvs	9, 3, r6, cr15, cr4, {3}
    c4fc:	73657220 	cmnvc	r5, #32, 4
    c500:	62207465 	eorvs	r7, r0, #1694498816	; 0x65000000
    c504:	65702079 	ldrbvs	r2, [r0, #-121]!	; 0x79
    c508:	4f007265 	svcmi	0x00007265
    c50c:	61726570 	cmnvs	r2, r0, ror r5
    c510:	6e6f6974 	mcrvs	9, 3, r6, cr15, cr4, {3}
    c514:	6d697420 	cfstrdvs	mvd7, [r9, #-128]!	; 0xffffff80
    c518:	6f206465 	svcvs	0x00206465
    c51c:	43007475 	movwmi	r7, #1141	; 0x475
    c520:	656e6e6f 	strbvs	r6, [lr, #-3695]!	; 0xe6f
    c524:	6f697463 	svcvs	0x00697463
    c528:	6572206e 	ldrbvs	r2, [r2, #-110]!	; 0x6e
    c52c:	65737566 	ldrbvs	r7, [r3, #-1382]!	; 0x566
    c530:	6f480064 	svcvs	0x00480064
    c534:	69207473 	stmdbvs	r0!, {r0, r1, r4, r5, r6, sl, ip, sp, lr}
    c538:	6f642073 	svcvs	0x00642073
    c53c:	48006e77 	stmdami	r0, {r0, r1, r2, r4, r5, r6, r9, sl, fp, sp, lr}
    c540:	2074736f 	rsbscs	r7, r4, pc, ror #6
    c544:	75207369 	strvc	r7, [r0, #-873]!	; 0x369
    c548:	6165726e 	cmnvs	r5, lr, ror #4
    c54c:	62616863 	rsbvs	r6, r1, #6488064	; 0x630000
    c550:	4100656c 	tstmi	r0, ip, ror #10
    c554:	65726464 	ldrbvs	r6, [r2, #-1124]!	; 0x464
    c558:	69207373 	stmdbvs	r0!, {r0, r1, r4, r5, r6, r8, r9, ip, sp, lr}
    c55c:	7375206e 	cmnvc	r5, #110	; 0x6e
    c560:	72420065 	subvc	r0, r2, #101	; 0x65
    c564:	6e656b6f 	vnmulvs.f64	d22, d5, d31
    c568:	70697020 	rsbvc	r7, r9, r0, lsr #32
    c56c:	2f490065 	svccs	0x00490065
    c570:	7265204f 	rsbvc	r2, r5, #79	; 0x4f
    c574:	00726f72 	rsbseq	r6, r2, r2, ror pc
    c578:	73206f4e 	teqvc	r0, #312	; 0x138
    c57c:	20686375 	rsbcs	r6, r8, r5, ror r3
    c580:	69766564 	ldmdbvs	r6!, {r2, r5, r6, r8, sl, sp, lr}^
    c584:	6f206563 	svcvs	0x00206563
    c588:	64612072 	strbtvs	r2, [r1], #-114	; 0x72
    c58c:	73657264 	cmnvc	r5, #100, 4	; 0x40000006
    c590:	6c420073 	mcrrvs	0, 7, r0, r2, cr3
    c594:	206b636f 	rsbcs	r6, fp, pc, ror #6
    c598:	69766564 	ldmdbvs	r6!, {r2, r5, r6, r8, sl, sp, lr}^
    c59c:	72206563 	eorvc	r6, r0, #415236096	; 0x18c00000
    c5a0:	69757165 	ldmdbvs	r5!, {r0, r2, r5, r6, r8, ip, sp, lr}^
    c5a4:	00646572 	rsbeq	r6, r4, r2, ror r5
    c5a8:	73206f4e 	teqvc	r0, #312	; 0x138
    c5ac:	20686375 	rsbcs	r6, r8, r5, ror r3
    c5b0:	69766564 	ldmdbvs	r6!, {r2, r5, r6, r8, sl, sp, lr}^
    c5b4:	4e006563 	cfsh32mi	mvfx6, mvfx0, #51
    c5b8:	6120746f 	teqvs	r0, pc, ror #8
    c5bc:	72696420 	rsbvc	r6, r9, #32, 8	; 0x20000000
    c5c0:	6f746365 	svcvs	0x00746365
    c5c4:	49007972 	stmdbmi	r0, {r1, r4, r5, r6, r8, fp, ip, sp, lr}
    c5c8:	20612073 	rsbcs	r2, r1, r3, ror r0
    c5cc:	65726964 	ldrbvs	r6, [r2, #-2404]!	; 0x964
    c5d0:	726f7463 	rsbvc	r7, pc, #1660944384	; 0x63000000
    c5d4:	65540079 	ldrbvs	r0, [r4, #-121]	; 0x79
    c5d8:	66207478 			; <UNDEFINED> instruction: 0x66207478
    c5dc:	20656c69 	rsbcs	r6, r5, r9, ror #24
    c5e0:	79737562 	ldmdbvc	r3!, {r1, r5, r6, r8, sl, ip, sp, lr}^
    c5e4:	65784500 	ldrbvs	r4, [r8, #-1280]!	; 0x500
    c5e8:	6f662063 	svcvs	0x00662063
    c5ec:	74616d72 	strbtvc	r6, [r1], #-3442	; 0xd72
    c5f0:	72726520 	rsbsvc	r6, r2, #32, 10	; 0x8000000
    c5f4:	4900726f 	stmdbmi	r0, {r0, r1, r2, r3, r5, r6, r9, ip, sp, lr}
    c5f8:	6c61766e 	stclvs	6, cr7, [r1], #-440	; 0xfffffe48
    c5fc:	61206469 	teqvs	r0, r9, ror #8
    c600:	6d756772 	ldclvs	7, cr6, [r5, #-456]!	; 0xfffffe38
    c604:	00746e65 	rsbseq	r6, r4, r5, ror #28
    c608:	75677241 	strbvc	r7, [r7, #-577]!	; 0x241
    c60c:	746e656d 	strbtvc	r6, [lr], #-1389	; 0x56d
    c610:	73696c20 	cmnvc	r9, #32, 24	; 0x2000
    c614:	6f742074 	svcvs	0x00742074
    c618:	6f6c206f 	svcvs	0x006c206f
    c61c:	5300676e 	movwpl	r6, #1902	; 0x76e
    c620:	6f626d79 	svcvs	0x00626d79
    c624:	2063696c 	rsbcs	r6, r3, ip, ror #18
    c628:	6b6e696c 	blvs	1ba6be0 <_stack+0x1b26be0>
    c62c:	6f6f6c20 	svcvs	0x006f6c20
    c630:	69460070 	stmdbvs	r6, {r4, r5, r6}^
    c634:	616e656c 	cmnvs	lr, ip, ror #10
    c638:	7420656d 	strtvc	r6, [r0], #-1389	; 0x56d
    c63c:	6c206f6f 	stcvs	15, cr6, [r0], #-444	; 0xfffffe44
    c640:	00676e6f 	rsbeq	r6, r7, pc, ror #28
    c644:	206f6f54 	rsbcs	r6, pc, r4, asr pc	; <UNPREDICTABLE>
    c648:	796e616d 	stmdbvc	lr!, {r0, r2, r3, r5, r6, r8, sp, lr}^
    c64c:	65706f20 	ldrbvs	r6, [r0, #-3872]!	; 0xf20
    c650:	6966206e 	stmdbvs	r6!, {r1, r2, r3, r5, r6, sp}^
    c654:	2073656c 	rsbscs	r6, r3, ip, ror #10
    c658:	73206e69 	teqvc	r0, #1680	; 0x690
    c65c:	65747379 	ldrbvs	r7, [r4, #-889]!	; 0x379
    c660:	6f4e006d 	svcvs	0x004e006d
    c664:	6c696620 	stclvs	6, cr6, [r9], #-128	; 0xffffff80
    c668:	65642065 	strbvs	r2, [r4, #-101]!	; 0x65
    c66c:	69726373 	ldmdbvs	r2!, {r0, r1, r4, r5, r6, r8, r9, sp, lr}^
    c670:	726f7470 	rsbvc	r7, pc, #112, 8	; 0x70000000
    c674:	76612073 			; <UNDEFINED> instruction: 0x76612073
    c678:	616c6961 	cmnvs	ip, r1, ror #18
    c67c:	00656c62 	rsbeq	r6, r5, r2, ror #24
    c680:	20646142 	rsbcs	r6, r4, r2, asr #2
    c684:	656c6966 	strbvs	r6, [ip, #-2406]!	; 0x966
    c688:	73656420 	cmnvc	r5, #32, 8	; 0x20000000
    c68c:	70697263 	rsbvc	r7, r9, r3, ror #4
    c690:	00726f74 	rsbseq	r6, r2, r4, ror pc
    c694:	63206f4e 	teqvs	r0, #312	; 0x138
    c698:	646c6968 	strbtvs	r6, [ip], #-2408	; 0x968
    c69c:	6f727020 	svcvs	0x00727020
    c6a0:	73736563 	cmnvc	r3, #415236096	; 0x18c00000
    c6a4:	64614200 	strbtvs	r4, [r1], #-512	; 0x200
    c6a8:	64646120 	strbtvs	r6, [r4], #-288	; 0x120
    c6ac:	73736572 	cmnvc	r3, #478150656	; 0x1c800000
    c6b0:	6c694600 	stclvs	6, cr4, [r9], #-0
    c6b4:	6f742065 	svcvs	0x00742065
    c6b8:	616c206f 	cmnvs	ip, pc, rrx
    c6bc:	00656772 	rsbeq	r6, r5, r2, ror r7
    c6c0:	206f6f54 	rsbcs	r6, pc, r4, asr pc	; <UNPREDICTABLE>
    c6c4:	796e616d 	stmdbvc	lr!, {r0, r2, r3, r5, r6, r8, sp, lr}^
    c6c8:	6e696c20 	cdpvs	12, 6, cr6, cr9, cr0, {1}
    c6cc:	4e00736b 	cdpmi	3, 0, cr7, cr0, cr11, {3}
    c6d0:	6f6c206f 	svcvs	0x006c206f
    c6d4:	20736b63 	rsbscs	r6, r3, r3, ror #22
    c6d8:	69617661 	stmdbvs	r1!, {r0, r5, r6, r9, sl, ip, sp, lr}^
    c6dc:	6c62616c 	stfvse	f6, [r2], #-432	; 0xfffffe50
    c6e0:	65520065 	ldrbvs	r0, [r2, #-101]	; 0x65
    c6e4:	72756f73 	rsbsvc	r6, r5, #460	; 0x1cc
    c6e8:	64206563 	strtvs	r6, [r0], #-1379	; 0x563
    c6ec:	6c646165 	stfvse	f6, [r4], #-404	; 0xfffffe6c
    c6f0:	206b636f 	rsbcs	r6, fp, pc, ror #6
    c6f4:	6c756f77 	ldclvs	15, cr6, [r5], #-476	; 0xfffffe24
    c6f8:	636f2064 	cmnvs	pc, #100	; 0x64
    c6fc:	00727563 	rsbseq	r7, r2, r3, ror #10
    c700:	74617453 	strbtvc	r7, [r1], #-1107	; 0x453
    c704:	6f6e2065 	svcvs	0x006e2065
    c708:	65722074 	ldrbvs	r2, [r2, #-116]!	; 0x74
    c70c:	65766f63 	ldrbvs	r6, [r6, #-3939]!	; 0xf63
    c710:	6c626172 	stfvse	f6, [r2], #-456	; 0xfffffe38
    c714:	72500065 	subsvc	r0, r0, #101	; 0x65
    c718:	6f697665 	svcvs	0x00697665
    c71c:	6f207375 	svcvs	0x00207375
    c720:	72656e77 	rsbvc	r6, r5, #1904	; 0x770
    c724:	65696420 	strbvs	r6, [r9, #-1056]!	; 0x420
    c728:	704f0064 	subvc	r0, pc, r4, rrx
    c72c:	74617265 	strbtvc	r7, [r1], #-613	; 0x265
    c730:	206e6f69 	rsbcs	r6, lr, r9, ror #30
    c734:	636e6163 	cmnvs	lr, #-1073741800	; 0xc0000018
    c738:	64656c65 	strbtvs	r6, [r5], #-3173	; 0xc65
    c73c:	6e754600 	cdpvs	6, 7, cr4, cr5, cr0, {0}
    c740:	6f697463 	svcvs	0x00697463
    c744:	6f6e206e 	svcvs	0x006e206e
    c748:	6d692074 	stclvs	0, cr2, [r9, #-464]!	; 0xfffffe30
    c74c:	6d656c70 	stclvs	12, cr6, [r5, #-448]!	; 0xfffffe40
    c750:	65746e65 	ldrbvs	r6, [r4, #-3685]!	; 0xe65
    c754:	6f4e0064 	svcvs	0x004e0064
    c758:	73656d20 	cmnvc	r5, #32, 26	; 0x800
    c75c:	65676173 	strbvs	r6, [r7, #-371]!	; 0x173
    c760:	20666f20 	rsbcs	r6, r6, r0, lsr #30
    c764:	69736564 	ldmdbvs	r3!, {r2, r5, r6, r8, sl, sp, lr}^
    c768:	20646572 	rsbcs	r6, r4, r2, ror r5
    c76c:	65707974 	ldrbvs	r7, [r0, #-2420]!	; 0x974
    c770:	65644900 	strbvs	r4, [r4, #-2304]!	; 0x900
    c774:	6669746e 	strbtvs	r7, [r9], -lr, ror #8
    c778:	20726569 	rsbscs	r6, r2, r9, ror #10
    c77c:	6f6d6572 	svcvs	0x006d6572
    c780:	00646576 	rsbeq	r6, r4, r6, ror r5
    c784:	69766544 	ldmdbvs	r6!, {r2, r6, r8, sl, sp, lr}^
    c788:	6e206563 	cfsh64vs	mvdx6, mvdx0, #51
    c78c:	6120746f 	teqvs	r0, pc, ror #8
    c790:	72747320 	rsbsvc	r7, r4, #32, 6	; 0x80000000
    c794:	006d6165 	rsbeq	r6, sp, r5, ror #2
    c798:	64206f4e 	strtvs	r6, [r0], #-3918	; 0xf4e
    c79c:	20617461 	rsbcs	r7, r1, r1, ror #8
    c7a0:	69617661 	stmdbvs	r1!, {r0, r5, r6, r9, sl, ip, sp, lr}^
    c7a4:	6c62616c 	stfvse	f6, [r2], #-432	; 0xfffffe50
    c7a8:	65440065 	strbvs	r0, [r4, #-101]	; 0x65
    c7ac:	65636976 	strbvs	r6, [r3, #-2422]!	; 0x976
    c7b0:	6d697420 	cfstrdvs	mvd7, [r9, #-128]!	; 0xffffff80
    c7b4:	74756f65 	ldrbtvc	r6, [r5], #-3941	; 0xf65
    c7b8:	74754f00 	ldrbtvc	r4, [r5], #-3840	; 0xf00
    c7bc:	20666f20 	rsbcs	r6, r6, r0, lsr #30
    c7c0:	65727473 	ldrbvs	r7, [r2, #-1139]!	; 0x473
    c7c4:	20736d61 	rsbscs	r6, r3, r1, ror #26
    c7c8:	6f736572 	svcvs	0x00736572
    c7cc:	65637275 	strbvs	r7, [r3, #-629]!	; 0x275
    c7d0:	694c0073 	stmdbvs	ip, {r0, r1, r4, r5, r6}^
    c7d4:	68206b6e 	stmdavs	r0!, {r1, r2, r3, r5, r6, r8, r9, fp, sp, lr}
    c7d8:	62207361 	eorvs	r7, r0, #-2080374783	; 0x84000001
    c7dc:	206e6565 	rsbcs	r6, lr, r5, ror #10
    c7e0:	65766573 	ldrbvs	r6, [r6, #-1395]!	; 0x573
    c7e4:	00646572 	rsbeq	r6, r4, r2, ror r5
    c7e8:	746f7250 	strbtvc	r7, [pc], #-592	; c7f0 <errmsg+0x478>
    c7ec:	6c6f636f 	stclvs	3, cr6, [pc], #-444	; c638 <errmsg+0x2c0>
    c7f0:	72726520 	rsbsvc	r6, r2, #32, 10	; 0x8000000
    c7f4:	4200726f 	andmi	r7, r0, #-268435450	; 0xf0000006
    c7f8:	6d206461 	cfstrsvs	mvf6, [r0, #-388]!	; 0xfffffe7c
    c7fc:	61737365 	cmnvs	r3, r5, ror #6
    c800:	46006567 	strmi	r6, [r0], -r7, ror #10
    c804:	20656c69 	rsbcs	r6, r5, r9, ror #24
    c808:	63736564 	cmnvs	r3, #100, 10	; 0x19000000
    c80c:	74706972 	ldrbtvc	r6, [r0], #-2418	; 0x972
    c810:	6920726f 	stmdbvs	r0!, {r0, r1, r2, r3, r5, r6, r9, ip, sp, lr}
    c814:	6162206e 	cmnvs	r2, lr, rrx
    c818:	74732064 	ldrbtvc	r2, [r3], #-100	; 0x64
    c81c:	00657461 	rsbeq	r7, r5, r1, ror #8
    c820:	20746f4e 	rsbscs	r6, r4, lr, asr #30
    c824:	6f732061 	svcvs	0x00732061
    c828:	74656b63 	strbtvc	r6, [r5], #-2915	; 0xb63
    c82c:	73654400 	cmnvc	r5, #0, 8
    c830:	616e6974 	smcvs	59028	; 0xe694
    c834:	6e6f6974 	mcrvs	9, 3, r6, cr15, cr4, {3}
    c838:	64646120 	strbtvs	r6, [r4], #-288	; 0x120
    c83c:	73736572 	cmnvc	r3, #478150656	; 0x1c800000
    c840:	71657220 	cmnvc	r5, r0, lsr #4
    c844:	65726975 	ldrbvs	r6, [r2, #-2421]!	; 0x975
    c848:	654d0064 	strbvs	r0, [sp, #-100]	; 0x64
    c84c:	67617373 			; <UNDEFINED> instruction: 0x67617373
    c850:	6f742065 	svcvs	0x00742065
    c854:	616c206f 	cmnvs	ip, pc, rrx
    c858:	00656772 	rsbeq	r6, r5, r2, ror r7
    c85c:	746f7250 	strbtvc	r7, [pc], #-592	; c864 <errmsg+0x4ec>
    c860:	6c6f636f 	stclvs	3, cr6, [pc], #-444	; c6ac <errmsg+0x334>
    c864:	6f727720 	svcvs	0x00727720
    c868:	7420676e 	strtvc	r6, [r0], #-1902	; 0x76e
    c86c:	20657079 	rsbcs	r7, r5, r9, ror r0
    c870:	20726f66 	rsbscs	r6, r2, r6, ror #30
    c874:	6b636f73 	blvs	18e8648 <_stack+0x1868648>
    c878:	50007465 	andpl	r7, r0, r5, ror #8
    c87c:	6f746f72 	svcvs	0x00746f72
    c880:	206c6f63 	rsbcs	r6, ip, r3, ror #30
    c884:	20746f6e 	rsbscs	r6, r4, lr, ror #30
    c888:	69617661 	stmdbvs	r1!, {r0, r5, r6, r9, sl, ip, sp, lr}^
    c88c:	6c62616c 	stfvse	f6, [r2], #-432	; 0xfffffe50
    c890:	72500065 	subsvc	r0, r0, #101	; 0x65
    c894:	636f746f 	cmnvs	pc, #1862270976	; 0x6f000000
    c898:	6e206c6f 	cdpvs	12, 2, cr6, cr0, cr15, {3}
    c89c:	7320746f 	teqvc	r0, #1862270976	; 0x6f000000
    c8a0:	6f707075 	svcvs	0x00707075
    c8a4:	64657472 	strbtvs	r7, [r5], #-1138	; 0x472
    c8a8:	636f5300 	cmnvs	pc, #0, 6
    c8ac:	2074656b 	rsbscs	r6, r4, fp, ror #10
    c8b0:	65707974 	ldrbvs	r7, [r0, #-2420]!	; 0x974
    c8b4:	746f6e20 	strbtvc	r6, [pc], #-3616	; c8bc <errmsg+0x544>
    c8b8:	70757320 	rsbsvc	r7, r5, r0, lsr #6
    c8bc:	74726f70 	ldrbtvc	r6, [r2], #-3952	; 0xf70
    c8c0:	4e006465 	cdpmi	4, 0, cr6, cr0, cr5, {3}
    c8c4:	7320746f 	teqvc	r0, #1862270976	; 0x6f000000
    c8c8:	6f707075 	svcvs	0x00707075
    c8cc:	64657472 	strbtvs	r7, [r5], #-1138	; 0x472
    c8d0:	6f725000 	svcvs	0x00725000
    c8d4:	6f636f74 	svcvs	0x00636f74
    c8d8:	6166206c 	cmnvs	r6, ip, rrx
    c8dc:	796c696d 	stmdbvc	ip!, {r0, r2, r3, r5, r6, r8, fp, sp, lr}^
    c8e0:	746f6e20 	strbtvc	r6, [pc], #-3616	; c8e8 <errmsg+0x570>
    c8e4:	70757320 	rsbsvc	r7, r5, r0, lsr #6
    c8e8:	74726f70 	ldrbtvc	r6, [r2], #-3952	; 0xf70
    c8ec:	41006465 	tstmi	r0, r5, ror #8
    c8f0:	65726464 	ldrbvs	r6, [r2, #-1124]!	; 0x464
    c8f4:	66207373 			; <UNDEFINED> instruction: 0x66207373
    c8f8:	6c696d61 	stclvs	13, cr6, [r9], #-388	; 0xfffffe7c
    c8fc:	6f6e2079 	svcvs	0x006e2079
    c900:	75732074 	ldrbvc	r2, [r3, #-116]!	; 0x74
    c904:	726f7070 	rsbvc	r7, pc, #112	; 0x70
    c908:	20646574 	rsbcs	r6, r4, r4, ror r5
    c90c:	70207962 	eorvc	r7, r0, r2, ror #18
    c910:	6f746f72 	svcvs	0x00746f72
    c914:	006c6f63 	rsbeq	r6, ip, r3, ror #30
    c918:	72646441 	rsbvc	r6, r4, #1090519040	; 0x41000000
    c91c:	20737365 	rsbscs	r7, r3, r5, ror #6
    c920:	20746f6e 	rsbscs	r6, r4, lr, ror #30
    c924:	69617661 	stmdbvs	r1!, {r0, r5, r6, r9, sl, ip, sp, lr}^
    c928:	6c62616c 	stfvse	f6, [r2], #-432	; 0xfffffe50
    c92c:	654e0065 	strbvs	r0, [lr, #-101]	; 0x65
    c930:	726f7774 	rsbvc	r7, pc, #116, 14	; 0x1d00000
    c934:	7369206b 	cmnvc	r9, #107	; 0x6b
    c938:	776f6420 	strbvc	r6, [pc, -r0, lsr #8]!
    c93c:	654e006e 	strbvs	r0, [lr, #-110]	; 0x6e
    c940:	726f7774 	rsbvc	r7, pc, #116, 14	; 0x1d00000
    c944:	6e75206b 	cdpvs	0, 7, cr2, cr5, cr11, {3}
    c948:	63616572 	cmnvs	r1, #478150656	; 0x1c800000
    c94c:	6c626168 	stfvse	f6, [r2], #-416	; 0xfffffe60
    c950:	6f430065 	svcvs	0x00430065
    c954:	63656e6e 	cmnvs	r5, #1760	; 0x6e0
    c958:	6e6f6974 	mcrvs	9, 3, r6, cr15, cr4, {3}
    c95c:	73657220 	cmnvc	r5, #32, 4
    c960:	62207465 	eorvs	r7, r0, #1694498816	; 0x65000000
    c964:	656e2079 	strbvs	r2, [lr, #-121]!	; 0x79
    c968:	726f7774 	rsbvc	r7, pc, #116, 14	; 0x1d00000
    c96c:	6f43006b 	svcvs	0x0043006b
    c970:	63656e6e 	cmnvs	r5, #1760	; 0x6e0
    c974:	6e6f6974 	mcrvs	9, 3, r6, cr15, cr4, {3}
    c978:	6f626120 	svcvs	0x00626120
    c97c:	64657472 	strbtvs	r7, [r5], #-1138	; 0x472
    c980:	206f4e00 	rsbcs	r4, pc, r0, lsl #28
    c984:	66667562 	strbtvs	r7, [r6], -r2, ror #10
    c988:	73207265 	teqvc	r0, #1342177286	; 0x50000006
    c98c:	65636170 	strbvs	r6, [r3, #-368]!	; 0x170
    c990:	61766120 	cmnvs	r6, r0, lsr #2
    c994:	62616c69 	rsbvs	r6, r1, #26880	; 0x6900
    c998:	5300656c 	movwpl	r6, #1388	; 0x56c
    c99c:	656b636f 	strbvs	r6, [fp, #-879]!	; 0x36f
    c9a0:	73692074 	cmnvc	r9, #116	; 0x74
    c9a4:	6e6f6320 	cdpvs	3, 6, cr6, cr15, cr0, {1}
    c9a8:	7463656e 	strbtvc	r6, [r3], #-1390	; 0x56e
    c9ac:	53006465 	movwpl	r6, #1125	; 0x465
    c9b0:	656b636f 	strbvs	r6, [fp, #-879]!	; 0x36f
    c9b4:	6f6e2074 	svcvs	0x006e2074
    c9b8:	6f632074 	svcvs	0x00632074
    c9bc:	63656e6e 	cmnvs	r5, #1760	; 0x6e0
    c9c0:	00646574 	rsbeq	r6, r4, r4, ror r5
    c9c4:	6e6e6143 	powvsem	f6, f6, f3
    c9c8:	7320746f 	teqvc	r0, #1862270976	; 0x6f000000
    c9cc:	20646e65 	rsbcs	r6, r4, r5, ror #28
    c9d0:	65746661 	ldrbvs	r6, [r4, #-1633]!	; 0x661
    c9d4:	6f732072 	svcvs	0x00732072
    c9d8:	74656b63 	strbtvc	r6, [r5], #-2915	; 0xb63
    c9dc:	75687320 	strbvc	r7, [r8, #-800]!	; 0x320
    c9e0:	776f6474 			; <UNDEFINED> instruction: 0x776f6474
    c9e4:	704f006e 	subvc	r0, pc, lr, rrx
    c9e8:	74617265 	strbtvc	r7, [r1], #-613	; 0x265
    c9ec:	206e6f69 	rsbcs	r6, lr, r9, ror #30
    c9f0:	65726c61 	ldrbvs	r6, [r2, #-3169]!	; 0xc61
    c9f4:	20796461 	rsbscs	r6, r9, r1, ror #8
    c9f8:	70206e69 	eorvc	r6, r0, r9, ror #28
    c9fc:	72676f72 	rsbvc	r6, r7, #456	; 0x1c8
    ca00:	00737365 	rsbseq	r7, r3, r5, ror #6
    ca04:	7265704f 	rsbvc	r7, r5, #79	; 0x4f
    ca08:	6f697461 	svcvs	0x00697461
    ca0c:	6e69206e 	cdpvs	0, 6, cr2, cr9, cr14, {3}
    ca10:	6f727020 	svcvs	0x00727020
    ca14:	73657267 	cmnvc	r5, #1879048198	; 0x70000006
    ca18:	74530073 	ldrbvc	r0, [r3], #-115	; 0x73
    ca1c:	20656c61 	rsbcs	r6, r5, r1, ror #24
    ca20:	656c6966 	strbvs	r6, [ip, #-2406]!	; 0x966
    ca24:	6e616820 	cdpvs	8, 6, cr6, cr1, cr0, {1}
    ca28:	00656c64 	rsbeq	r6, r5, r4, ror #24
    ca2c:	6f6d6552 	svcvs	0x006d6552
    ca30:	49206574 	stmdbmi	r0!, {r2, r4, r5, r6, r8, sl, sp, lr}
    ca34:	65204f2f 	strvs	r4, [r0, #-3887]!	; 0xf2f
    ca38:	726f7272 	rsbvc	r7, pc, #536870919	; 0x20000007
    ca3c:	6f755100 	svcvs	0x00755100
    ca40:	65206174 	strvs	r6, [r0, #-372]!	; 0x174
    ca44:	65656378 	strbvs	r6, [r5, #-888]!	; 0x378
    ca48:	00646564 	rsbeq	r6, r4, r4, ror #10
    ca4c:	6d206f4e 	stcvs	15, cr6, [r0, #-312]!	; 0xfffffec8
    ca50:	75696465 	strbvc	r6, [r9, #-1125]!	; 0x465
    ca54:	6f66206d 	svcvs	0x0066206d
    ca58:	00646e75 	rsbeq	r6, r4, r5, ror lr
    ca5c:	6e6f7257 	mcrvs	2, 3, r7, cr15, cr7, {2}
    ca60:	656d2067 	strbvs	r2, [sp, #-103]!	; 0x67
    ca64:	6d756964 	ldclvs	9, cr6, [r5, #-400]!	; 0xfffffe70
    ca68:	70797420 	rsbsvc	r7, r9, r0, lsr #8
    ca6c:	6f4e0065 	svcvs	0x004e0065
    ca70:	72726520 	rsbsvc	r6, r2, #32, 10	; 0x8000000
    ca74:	6920726f 	stmdbvs	r0!, {r0, r1, r2, r3, r5, r6, r9, ip, sp, lr}
    ca78:	726f666e 	rsbvc	r6, pc, #115343360	; 0x6e00000
    ca7c:	6974616d 	ldmdbvs	r4!, {r0, r2, r3, r5, r6, r8, sp, lr}^
    ca80:	00006e6f 	andeq	r6, r0, pc, ror #28

0000ca84 <errid>:
    ca84:	19222154 	stmdbne	r2!, {r2, r4, r6, r8, sp}
    ca88:	0302010d 	movweq	r0, #8461	; 0x210d
    ca8c:	0c1c4b11 	ldceq	11, cr4, [ip], {17}
    ca90:	1d0b0410 	cfstrsne	mvf0, [fp, #-64]	; 0xffffffc0
    ca94:	68271e12 	stmdavs	r7!, {r1, r4, r9, sl, fp, ip}
    ca98:	71706f6e 	cmnvc	r0, lr, ror #30
    ca9c:	06052062 	streq	r2, [r5], -r2, rrx
    caa0:	1514130f 	ldrne	r1, [r4, #-783]	; 0x30f
    caa4:	0716081a 			; <UNDEFINED> instruction: 0x0716081a
    caa8:	18172428 	ldmdane	r7, {r3, r5, sl, sp}
    caac:	1b0e0a09 	blne	38f2d8 <_stack+0x30f2d8>
    cab0:	8323251f 	teqhi	r3, #130023424	; 0x7c00000
    cab4:	2a267d82 	bcs	9ac0c4 <_stack+0x92c0c4>
    cab8:	3e3d3c2b 	cdpcc	12, 3, cr3, cr13, cr11, {1}
    cabc:	4a47433f 	bmi	11dd7c0 <_stack+0x115d7c0>
    cac0:	5a59584d 	bpl	1662bfc <_stack+0x15e2bfc>
    cac4:	5e5d5c5b 	mrcpl	12, 2, r5, cr13, cr11, {2}
    cac8:	6361605f 	cmnvs	r1, #95	; 0x5f
    cacc:	67666564 	strbvs	r6, [r6, -r4, ror #10]!
    cad0:	6c6b6a69 	stclvs	10, cr6, [fp], #-420	; 0xfffffe5c
    cad4:	79747372 	ldmdbvc	r4!, {r1, r4, r5, r6, r8, r9, ip, sp, lr}^
    cad8:	007c7b7a 	rsbseq	r7, ip, sl, ror fp

0000cadc <__stderr_used>:
    cadc:	00000000 	andeq	r0, r0, r0

Disassembly of section .ARM.exidx:

0000cae0 <.ARM.exidx>:
    cae0:	7fffecc0 	svcvc	0x00ffecc0
    cae4:	00000001 	andeq	r0, r0, r1

Disassembly of section .data:

00014ae8 <__data_start>:
   14ae8:	00000005 	andeq	r0, r0, r5
	...
   14af4:	00009fc4 	andeq	r9, r0, r4, asr #31
	...
   14b0c:	00009fdc 	ldrdeq	r9, [r0], -ip
   14b10:	00009f74 	andeq	r9, r0, r4, ror pc
   14b14:	00014b80 	andeq	r4, r1, r0, lsl #23
   14b18:	00000400 	andeq	r0, r0, r0, lsl #8
	...
   14b24:	00000001 	andeq	r0, r0, r1
	...
   14b30:	0a000000 	beq	14b38 <__data_start+0x50>
   14b34:	ffffffff 			; <UNDEFINED> instruction: 0xffffffff
	...

Disassembly of section .bss:

00014b68 <__bss_start>:
   14b68:	00000000 	andeq	r0, r0, r0

00014b6c <lock.4273>:
   14b6c:	00000000 	andeq	r0, r0, r0

00014b70 <__progname_full>:
   14b70:	00000000 	andeq	r0, r0, r0

00014b74 <__progname>:
   14b74:	00000000 	andeq	r0, r0, r0

00014b78 <buf>:
	...

00014f80 <e.3613>:
   14f80:	00000000 	andeq	r0, r0, r0

00014f84 <__hwcap>:
   14f84:	00000000 	andeq	r0, r0, r0

00014f88 <__libc>:
	...

00014fb4 <__sysinfo>:
   14fb4:	00000000 	andeq	r0, r0, r0

Disassembly of section .comment:

00000000 <.comment>:
   0:	3a434347 	bcc	10d0d24 <_stack+0x1050d24>
   4:	4e472820 	cdpmi	8, 4, cr2, cr7, cr0, {1}
   8:	34202955 	strtcc	r2, [r0], #-2389	; 0x955
   c:	312e382e 	teqcc	lr, lr, lsr #16
	...

Disassembly of section .debug_aranges:

00000000 <.debug_aranges>:
   0:	0000001c 	andeq	r0, r0, ip, lsl r0
   4:	00000002 	andeq	r0, r0, r2
   8:	00040000 	andeq	r0, r4, r0
   c:	00000000 	andeq	r0, r0, r0
  10:	0000a9b8 			; <UNDEFINED> instruction: 0x0000a9b8
  14:	00000114 	andeq	r0, r0, r4, lsl r1
	...
  20:	0000001c 	andeq	r0, r0, ip, lsl r0
  24:	00990002 	addseq	r0, r9, r2
  28:	00040000 	andeq	r0, r4, r0
  2c:	00000000 	andeq	r0, r0, r0
  30:	0000aacc 	andeq	sl, r0, ip, asr #21
  34:	00000148 	andeq	r0, r0, r8, asr #2
	...
  40:	0000001c 	andeq	r0, r0, ip, lsl r0
  44:	01320002 	teqeq	r2, r2
  48:	00040000 	andeq	r0, r4, r0
  4c:	00000000 	andeq	r0, r0, r0
  50:	0000ac14 	andeq	sl, r0, r4, lsl ip
  54:	00000004 	andeq	r0, r0, r4
	...
  60:	0000001c 	andeq	r0, r0, ip, lsl r0
  64:	01cb0002 	biceq	r0, fp, r2
  68:	00040000 	andeq	r0, r4, r0
  6c:	00000000 	andeq	r0, r0, r0
  70:	0000ac18 	andeq	sl, r0, r8, lsl ip
  74:	0000001c 	andeq	r0, r0, ip, lsl r0
	...
  80:	0000001c 	andeq	r0, r0, ip, lsl r0
  84:	02640002 	rsbeq	r0, r4, #2
  88:	00040000 	andeq	r0, r4, r0
  8c:	00000000 	andeq	r0, r0, r0
  90:	0000ac34 	andeq	sl, r0, r4, lsr ip
  94:	0000041c 	andeq	r0, r0, ip, lsl r4
	...
  a0:	0000001c 	andeq	r0, r0, ip, lsl r0
  a4:	02fe0002 	rscseq	r0, lr, #2
  a8:	00040000 	andeq	r0, r4, r0
  ac:	00000000 	andeq	r0, r0, r0
  b0:	0000b050 	andeq	fp, r0, r0, asr r0
  b4:	0000049c 	muleq	r0, ip, r4
	...
  c0:	0000001c 	andeq	r0, r0, ip, lsl r0
  c4:	03980002 	orrseq	r0, r8, #2
  c8:	00040000 	andeq	r0, r4, r0
  cc:	00000000 	andeq	r0, r0, r0
  d0:	0000b4ec 	andeq	fp, r0, ip, ror #9
  d4:	00000144 	andeq	r0, r0, r4, asr #2
	...
  e0:	0000001c 	andeq	r0, r0, ip, lsl r0
  e4:	04320002 	ldrteq	r0, [r2], #-2
  e8:	00040000 	andeq	r0, r4, r0
  ec:	00000000 	andeq	r0, r0, r0
  f0:	0000b630 	andeq	fp, r0, r0, lsr r6
  f4:	0000005c 	andeq	r0, r0, ip, asr r0
	...
 100:	0000001c 	andeq	r0, r0, ip, lsl r0
 104:	04cc0002 	strbeq	r0, [ip], #2
 108:	00040000 	andeq	r0, r4, r0
 10c:	00000000 	andeq	r0, r0, r0
 110:	0000b68c 	andeq	fp, r0, ip, lsl #13
 114:	00000054 	andeq	r0, r0, r4, asr r0
	...
 120:	0000001c 	andeq	r0, r0, ip, lsl r0
 124:	05660002 	strbeq	r0, [r6, #-2]!
 128:	00040000 	andeq	r0, r4, r0
 12c:	00000000 	andeq	r0, r0, r0
 130:	0000b6e0 	andeq	fp, r0, r0, ror #13
 134:	0000003c 	andeq	r0, r0, ip, lsr r0
	...
 140:	0000001c 	andeq	r0, r0, ip, lsl r0
 144:	05fb0002 	ldrbeq	r0, [fp, #2]!
 148:	00040000 	andeq	r0, r4, r0
 14c:	00000000 	andeq	r0, r0, r0
 150:	0000b71c 	andeq	fp, r0, ip, lsl r7
 154:	00000084 	andeq	r0, r0, r4, lsl #1
	...
 160:	0000001c 	andeq	r0, r0, ip, lsl r0
 164:	075f0002 	ldrbeq	r0, [pc, -r2]
 168:	00040000 	andeq	r0, r4, r0
 16c:	00000000 	andeq	r0, r0, r0
 170:	0000b7a0 	andeq	fp, r0, r0, lsr #15
 174:	000004d0 	ldrdeq	r0, [r0], -r0	; <UNPREDICTABLE>
	...
 180:	0000001c 	andeq	r0, r0, ip, lsl r0
 184:	0d230002 	stceq	0, cr0, [r3, #-8]!
 188:	00040000 	andeq	r0, r4, r0
 18c:	00000000 	andeq	r0, r0, r0
 190:	0000bc70 	andeq	fp, r0, r0, ror ip
 194:	00000470 	andeq	r0, r0, r0, ror r4
	...
 1a0:	0000001c 	andeq	r0, r0, ip, lsl r0
 1a4:	12a60002 	adcne	r0, r6, #2
 1a8:	00040000 	andeq	r0, r4, r0
 1ac:	00000000 	andeq	r0, r0, r0
 1b0:	0000c0e0 	andeq	ip, r0, r0, ror #1
 1b4:	00000048 	andeq	r0, r0, r8, asr #32
	...

Disassembly of section .debug_info:

00000000 <.debug_info>:
       0:	00000095 	muleq	r0, r5, r0
       4:	00000002 	andeq	r0, r0, r2
       8:	01040000 	mrseq	r0, (UNDEF: 4)
       c:	00000000 	andeq	r0, r0, r0
      10:	0000a9b8 			; <UNDEFINED> instruction: 0x0000a9b8
      14:	0000aacc 	andeq	sl, r0, ip, asr #21
      18:	2e2f2e2e 	cdpcs	14, 2, cr2, cr15, cr14, {1}
      1c:	2e2e2f2e 	cdpcs	15, 2, cr2, cr14, cr14, {1}
      20:	2f2e2e2f 	svccs	0x002e2e2f
      24:	2f637273 	svccs	0x00637273
      28:	2d636367 	stclcs	3, cr6, [r3, #-412]!	; 0xfffffe64
      2c:	2e382e34 	mrccs	14, 1, r2, cr8, cr4, {1}
      30:	696c2f31 	stmdbvs	ip!, {r0, r4, r5, r8, r9, sl, fp, sp}^
      34:	63636762 	cmnvs	r3, #25690112	; 0x1880000
      38:	6e6f632f 	cdpvs	3, 6, cr6, cr15, cr15, {1}
      3c:	2f676966 	svccs	0x00676966
      40:	2f6d7261 	svccs	0x006d7261
      44:	3162696c 	cmncc	r2, ip, ror #18
      48:	636e7566 	cmnvs	lr, #427819008	; 0x19800000
      4c:	00532e73 	subseq	r2, r3, r3, ror lr
      50:	706d742f 	rsbvc	r7, sp, pc, lsr #8
      54:	756f632f 	strbvc	r6, [pc, #-815]!	; fffffd2d <_stack+0xfff7fd2d>
      58:	5f657372 	svcpl	0x00657372
      5c:	742f736f 	strtvc	r7, [pc], #-879	; 64 <_init-0x7f9c>
      60:	65677261 	strbvs	r7, [r7, #-609]!	; 0x261
      64:	75622f74 	strbvc	r2, [r2, #-3956]!	; 0xf74
      68:	2f646c69 	svccs	0x00646c69
      6c:	2d636367 	stclcs	3, cr6, [r3, #-412]!	; 0xfffffe64
      70:	2e382e34 	mrccs	14, 1, r2, cr8, cr4, {1}
      74:	72612f31 	rsbvc	r2, r1, #49, 30	; 0xc4
      78:	6f6e2d6d 	svcvs	0x006e2d6d
      7c:	652d656e 	strvs	r6, [sp, #-1390]!	; 0x56e
      80:	2f696261 	svccs	0x00696261
      84:	6762696c 	strbvs	r6, [r2, -ip, ror #18]!
      88:	47006363 	strmi	r6, [r0, -r3, ror #6]
      8c:	4120554e 	teqmi	r0, lr, asr #10
      90:	2e322053 	mrccs	0, 1, r2, cr2, cr3, {2}
      94:	01003432 	tsteq	r0, r2, lsr r4
      98:	00009580 	andeq	r9, r0, r0, lsl #11
      9c:	14000200 	strne	r0, [r0], #-512	; 0x200
      a0:	04000000 	streq	r0, [r0], #-0
      a4:	00009101 	andeq	r9, r0, r1, lsl #2
      a8:	00aacc00 	adceq	ip, sl, r0, lsl #24
      ac:	00ac1400 	adceq	r1, ip, r0, lsl #8
      b0:	2f2e2e00 	svccs	0x002e2e00
      b4:	2e2f2e2e 	cdpcs	14, 2, cr2, cr15, cr14, {1}
      b8:	2e2e2f2e 	cdpcs	15, 2, cr2, cr14, cr14, {1}
      bc:	6372732f 	cmnvs	r2, #-1140850688	; 0xbc000000
      c0:	6363672f 	cmnvs	r3, #12320768	; 0xbc0000
      c4:	382e342d 	stmdacc	lr!, {r0, r2, r3, r5, sl, ip, sp}
      c8:	6c2f312e 	stfvss	f3, [pc], #-184	; 18 <_init-0x7fe8>
      cc:	63676269 	cmnvs	r7, #-1879048186	; 0x90000006
      d0:	6f632f63 	svcvs	0x00632f63
      d4:	6769666e 	strbvs	r6, [r9, -lr, ror #12]!
      d8:	6d72612f 	ldfvse	f6, [r2, #-188]!	; 0xffffff44
      dc:	62696c2f 	rsbvs	r6, r9, #12032	; 0x2f00
      e0:	6e756631 	mrcvs	6, 3, r6, cr5, cr1, {1}
      e4:	532e7363 	teqpl	lr, #-1946157055	; 0x8c000001
      e8:	6d742f00 	ldclvs	15, cr2, [r4, #-0]
      ec:	6f632f70 	svcvs	0x00632f70
      f0:	65737275 	ldrbvs	r7, [r3, #-629]!	; 0x275
      f4:	2f736f5f 	svccs	0x00736f5f
      f8:	67726174 			; <UNDEFINED> instruction: 0x67726174
      fc:	622f7465 	eorvs	r7, pc, #1694498816	; 0x65000000
     100:	646c6975 	strbtvs	r6, [ip], #-2421	; 0x975
     104:	6363672f 	cmnvs	r3, #12320768	; 0xbc0000
     108:	382e342d 	stmdacc	lr!, {r0, r2, r3, r5, sl, ip, sp}
     10c:	612f312e 	teqvs	pc, lr, lsr #2
     110:	6e2d6d72 	mcrvs	13, 1, r6, cr13, cr2, {3}
     114:	2d656e6f 	stclcs	14, cr6, [r5, #-444]!	; 0xfffffe44
     118:	69626165 	stmdbvs	r2!, {r0, r2, r5, r6, r8, sp, lr}^
     11c:	62696c2f 	rsbvs	r6, r9, #12032	; 0x2f00
     120:	00636367 	rsbeq	r6, r3, r7, ror #6
     124:	20554e47 	subscs	r4, r5, r7, asr #28
     128:	32205341 	eorcc	r5, r0, #67108865	; 0x4000001
     12c:	0034322e 	eorseq	r3, r4, lr, lsr #4
     130:	00958001 	addseq	r8, r5, r1
     134:	00020000 	andeq	r0, r2, r0
     138:	00000028 	andeq	r0, r0, r8, lsr #32
     13c:	012e0104 	teqeq	lr, r4, lsl #2
     140:	ac140000 	ldcge	0, cr0, [r4], {-0}
     144:	ac180000 	ldcge	0, cr0, [r8], {-0}
     148:	2e2e0000 	cdpcs	0, 2, cr0, cr14, cr0, {0}
     14c:	2f2e2e2f 	svccs	0x002e2e2f
     150:	2e2f2e2e 	cdpcs	14, 2, cr2, cr15, cr14, {1}
     154:	72732f2e 	rsbsvc	r2, r3, #46, 30	; 0xb8
     158:	63672f63 	cmnvs	r7, #396	; 0x18c
     15c:	2e342d63 	cdpcs	13, 3, cr2, cr4, cr3, {3}
     160:	2f312e38 	svccs	0x00312e38
     164:	6762696c 	strbvs	r6, [r2, -ip, ror #18]!
     168:	632f6363 	teqvs	pc, #-1946157055	; 0x8c000001
     16c:	69666e6f 	stmdbvs	r6!, {r0, r1, r2, r3, r5, r6, r9, sl, fp, sp, lr}^
     170:	72612f67 	rsbvc	r2, r1, #412	; 0x19c
     174:	696c2f6d 	stmdbvs	ip!, {r0, r2, r3, r5, r6, r8, r9, sl, fp, sp}^
     178:	75663162 	strbvc	r3, [r6, #-354]!	; 0x162
     17c:	2e73636e 	cdpcs	3, 7, cr6, cr3, cr14, {3}
     180:	742f0053 	strtvc	r0, [pc], #-83	; 188 <_init-0x7e78>
     184:	632f706d 	teqvs	pc, #109	; 0x6d
     188:	7372756f 	cmnvc	r2, #465567744	; 0x1bc00000
     18c:	736f5f65 	cmnvc	pc, #404	; 0x194
     190:	7261742f 	rsbvc	r7, r1, #788529152	; 0x2f000000
     194:	2f746567 	svccs	0x00746567
     198:	6c697562 	cfstr64vs	mvdx7, [r9], #-392	; 0xfffffe78
     19c:	63672f64 	cmnvs	r7, #100, 30	; 0x190
     1a0:	2e342d63 	cdpcs	13, 3, cr2, cr4, cr3, {3}
     1a4:	2f312e38 	svccs	0x00312e38
     1a8:	2d6d7261 	sfmcs	f7, 2, [sp, #-388]!	; 0xfffffe7c
     1ac:	656e6f6e 	strbvs	r6, [lr, #-3950]!	; 0xf6e
     1b0:	6261652d 	rsbvs	r6, r1, #188743680	; 0xb400000
     1b4:	696c2f69 	stmdbvs	ip!, {r0, r3, r5, r6, r8, r9, sl, fp, sp}^
     1b8:	63636762 	cmnvs	r3, #25690112	; 0x1880000
     1bc:	554e4700 	strbpl	r4, [lr, #-1792]	; 0x700
     1c0:	20534120 	subscs	r4, r3, r0, lsr #2
     1c4:	34322e32 	ldrtcc	r2, [r2], #-3634	; 0xe32
     1c8:	95800100 	strls	r0, [r0, #256]	; 0x100
     1cc:	02000000 	andeq	r0, r0, #0
     1d0:	00003c00 	andeq	r3, r0, r0, lsl #24
     1d4:	96010400 	strls	r0, [r1], -r0, lsl #8
     1d8:	18000001 	stmdane	r0, {r0}
     1dc:	340000ac 	strcc	r0, [r0], #-172	; 0xac
     1e0:	2e0000ac 	cdpcs	0, 0, cr0, cr0, cr12, {5}
     1e4:	2e2e2f2e 	cdpcs	15, 2, cr2, cr14, cr14, {1}
     1e8:	2f2e2e2f 	svccs	0x002e2e2f
     1ec:	732f2e2e 	teqvc	pc, #736	; 0x2e0
     1f0:	672f6372 			; <UNDEFINED> instruction: 0x672f6372
     1f4:	342d6363 	strtcc	r6, [sp], #-867	; 0x363
     1f8:	312e382e 	teqcc	lr, lr, lsr #16
     1fc:	62696c2f 	rsbvs	r6, r9, #12032	; 0x2f00
     200:	2f636367 	svccs	0x00636367
     204:	666e6f63 	strbtvs	r6, [lr], -r3, ror #30
     208:	612f6769 	teqvs	pc, r9, ror #14
     20c:	6c2f6d72 	stcvs	13, cr6, [pc], #-456	; 4c <_init-0x7fb4>
     210:	66316269 	ldrtvs	r6, [r1], -r9, ror #4
     214:	73636e75 	cmnvc	r3, #1872	; 0x750
     218:	2f00532e 	svccs	0x0000532e
     21c:	2f706d74 	svccs	0x00706d74
     220:	72756f63 	rsbsvc	r6, r5, #396	; 0x18c
     224:	6f5f6573 	svcvs	0x005f6573
     228:	61742f73 	cmnvs	r4, r3, ror pc
     22c:	74656772 	strbtvc	r6, [r5], #-1906	; 0x772
     230:	6975622f 	ldmdbvs	r5!, {r0, r1, r2, r3, r5, r9, sp, lr}^
     234:	672f646c 	strvs	r6, [pc, -ip, ror #8]!
     238:	342d6363 	strtcc	r6, [sp], #-867	; 0x363
     23c:	312e382e 	teqcc	lr, lr, lsr #16
     240:	6d72612f 	ldfvse	f6, [r2, #-188]!	; 0xffffff44
     244:	6e6f6e2d 	cdpvs	14, 6, cr6, cr15, cr13, {1}
     248:	61652d65 	cmnvs	r5, r5, ror #26
     24c:	6c2f6962 	stcvs	9, cr6, [pc], #-392	; cc <_init-0x7f34>
     250:	63676269 	cmnvs	r7, #-1879048186	; 0x90000006
     254:	4e470063 	cdpmi	0, 4, cr0, cr7, cr3, {3}
     258:	53412055 	movtpl	r2, #4181	; 0x1055
     25c:	322e3220 	eorcc	r3, lr, #32, 4
     260:	80010034 	andhi	r0, r1, r4, lsr r0
     264:	00000096 	muleq	r0, r6, r0
     268:	00500002 	subseq	r0, r0, r2
     26c:	01040000 	mrseq	r0, (UNDEF: 4)
     270:	00000204 	andeq	r0, r0, r4, lsl #4
     274:	0000ac34 	andeq	sl, r0, r4, lsr ip
     278:	0000b050 	andeq	fp, r0, r0, asr r0
     27c:	2e2f2e2e 	cdpcs	14, 2, cr2, cr15, cr14, {1}
     280:	2e2e2f2e 	cdpcs	15, 2, cr2, cr14, cr14, {1}
     284:	2f2e2e2f 	svccs	0x002e2e2f
     288:	2f637273 	svccs	0x00637273
     28c:	2d636367 	stclcs	3, cr6, [r3, #-412]!	; 0xfffffe64
     290:	2e382e34 	mrccs	14, 1, r2, cr8, cr4, {1}
     294:	696c2f31 	stmdbvs	ip!, {r0, r4, r5, r8, r9, sl, fp, sp}^
     298:	63636762 	cmnvs	r3, #25690112	; 0x1880000
     29c:	6e6f632f 	cdpvs	3, 6, cr6, cr15, cr15, {1}
     2a0:	2f676966 	svccs	0x00676966
     2a4:	2f6d7261 	svccs	0x006d7261
     2a8:	65656569 	strbvs	r6, [r5, #-1385]!	; 0x569
     2ac:	2d343537 	cfldr32cs	mvfx3, [r4, #-220]!	; 0xffffff24
     2b0:	532e6664 	teqpl	lr, #100, 12	; 0x6400000
     2b4:	6d742f00 	ldclvs	15, cr2, [r4, #-0]
     2b8:	6f632f70 	svcvs	0x00632f70
     2bc:	65737275 	ldrbvs	r7, [r3, #-629]!	; 0x275
     2c0:	2f736f5f 	svccs	0x00736f5f
     2c4:	67726174 			; <UNDEFINED> instruction: 0x67726174
     2c8:	622f7465 	eorvs	r7, pc, #1694498816	; 0x65000000
     2cc:	646c6975 	strbtvs	r6, [ip], #-2421	; 0x975
     2d0:	6363672f 	cmnvs	r3, #12320768	; 0xbc0000
     2d4:	382e342d 	stmdacc	lr!, {r0, r2, r3, r5, sl, ip, sp}
     2d8:	612f312e 	teqvs	pc, lr, lsr #2
     2dc:	6e2d6d72 	mcrvs	13, 1, r6, cr13, cr2, {3}
     2e0:	2d656e6f 	stclcs	14, cr6, [r5, #-444]!	; 0xfffffe44
     2e4:	69626165 	stmdbvs	r2!, {r0, r2, r5, r6, r8, sp, lr}^
     2e8:	62696c2f 	rsbvs	r6, r9, #12032	; 0x2f00
     2ec:	00636367 	rsbeq	r6, r3, r7, ror #6
     2f0:	20554e47 	subscs	r4, r5, r7, asr #28
     2f4:	32205341 	eorcc	r5, r0, #67108865	; 0x4000001
     2f8:	0034322e 	eorseq	r3, r4, lr, lsr #4
     2fc:	00968001 	addseq	r8, r6, r1
     300:	00020000 	andeq	r0, r2, r0
     304:	00000064 	andeq	r0, r0, r4, rrx
     308:	036f0104 	cmneq	pc, #4, 2
     30c:	b0500000 	subslt	r0, r0, r0
     310:	b4ec0000 	strbtlt	r0, [ip], #0
     314:	2e2e0000 	cdpcs	0, 2, cr0, cr14, cr0, {0}
     318:	2f2e2e2f 	svccs	0x002e2e2f
     31c:	2e2f2e2e 	cdpcs	14, 2, cr2, cr15, cr14, {1}
     320:	72732f2e 	rsbsvc	r2, r3, #46, 30	; 0xb8
     324:	63672f63 	cmnvs	r7, #396	; 0x18c
     328:	2e342d63 	cdpcs	13, 3, cr2, cr4, cr3, {3}
     32c:	2f312e38 	svccs	0x00312e38
     330:	6762696c 	strbvs	r6, [r2, -ip, ror #18]!
     334:	632f6363 	teqvs	pc, #-1946157055	; 0x8c000001
     338:	69666e6f 	stmdbvs	r6!, {r0, r1, r2, r3, r5, r6, r9, sl, fp, sp, lr}^
     33c:	72612f67 	rsbvc	r2, r1, #412	; 0x19c
     340:	65692f6d 	strbvs	r2, [r9, #-3949]!	; 0xf6d
     344:	35376565 	ldrcc	r6, [r7, #-1381]!	; 0x565
     348:	66642d34 			; <UNDEFINED> instruction: 0x66642d34
     34c:	2f00532e 	svccs	0x0000532e
     350:	2f706d74 	svccs	0x00706d74
     354:	72756f63 	rsbsvc	r6, r5, #396	; 0x18c
     358:	6f5f6573 	svcvs	0x005f6573
     35c:	61742f73 	cmnvs	r4, r3, ror pc
     360:	74656772 	strbtvc	r6, [r5], #-1906	; 0x772
     364:	6975622f 	ldmdbvs	r5!, {r0, r1, r2, r3, r5, r9, sp, lr}^
     368:	672f646c 	strvs	r6, [pc, -ip, ror #8]!
     36c:	342d6363 	strtcc	r6, [sp], #-867	; 0x363
     370:	312e382e 	teqcc	lr, lr, lsr #16
     374:	6d72612f 	ldfvse	f6, [r2, #-188]!	; 0xffffff44
     378:	6e6f6e2d 	cdpvs	14, 6, cr6, cr15, cr13, {1}
     37c:	61652d65 	cmnvs	r5, r5, ror #26
     380:	6c2f6962 	stcvs	9, cr6, [pc], #-392	; 200 <_init-0x7e00>
     384:	63676269 	cmnvs	r7, #-1879048186	; 0x90000006
     388:	4e470063 	cdpmi	0, 4, cr0, cr7, cr3, {3}
     38c:	53412055 	movtpl	r2, #4181	; 0x1055
     390:	322e3220 	eorcc	r3, lr, #32, 4
     394:	80010034 	andhi	r0, r1, r4, lsr r0
     398:	00000096 	muleq	r0, r6, r0
     39c:	00780002 	rsbseq	r0, r8, r2
     3a0:	01040000 	mrseq	r0, (UNDEF: 4)
     3a4:	000004f6 	strdeq	r0, [r0], -r6
     3a8:	0000b4ec 	andeq	fp, r0, ip, ror #9
     3ac:	0000b630 	andeq	fp, r0, r0, lsr r6
     3b0:	2e2f2e2e 	cdpcs	14, 2, cr2, cr15, cr14, {1}
     3b4:	2e2e2f2e 	cdpcs	15, 2, cr2, cr14, cr14, {1}
     3b8:	2f2e2e2f 	svccs	0x002e2e2f
     3bc:	2f637273 	svccs	0x00637273
     3c0:	2d636367 	stclcs	3, cr6, [r3, #-412]!	; 0xfffffe64
     3c4:	2e382e34 	mrccs	14, 1, r2, cr8, cr4, {1}
     3c8:	696c2f31 	stmdbvs	ip!, {r0, r4, r5, r8, r9, sl, fp, sp}^
     3cc:	63636762 	cmnvs	r3, #25690112	; 0x1880000
     3d0:	6e6f632f 	cdpvs	3, 6, cr6, cr15, cr15, {1}
     3d4:	2f676966 	svccs	0x00676966
     3d8:	2f6d7261 	svccs	0x006d7261
     3dc:	65656569 	strbvs	r6, [r5, #-1385]!	; 0x569
     3e0:	2d343537 	cfldr32cs	mvfx3, [r4, #-220]!	; 0xffffff24
     3e4:	532e6664 	teqpl	lr, #100, 12	; 0x6400000
     3e8:	6d742f00 	ldclvs	15, cr2, [r4, #-0]
     3ec:	6f632f70 	svcvs	0x00632f70
     3f0:	65737275 	ldrbvs	r7, [r3, #-629]!	; 0x275
     3f4:	2f736f5f 	svccs	0x00736f5f
     3f8:	67726174 			; <UNDEFINED> instruction: 0x67726174
     3fc:	622f7465 	eorvs	r7, pc, #1694498816	; 0x65000000
     400:	646c6975 	strbtvs	r6, [ip], #-2421	; 0x975
     404:	6363672f 	cmnvs	r3, #12320768	; 0xbc0000
     408:	382e342d 	stmdacc	lr!, {r0, r2, r3, r5, sl, ip, sp}
     40c:	612f312e 	teqvs	pc, lr, lsr #2
     410:	6e2d6d72 	mcrvs	13, 1, r6, cr13, cr2, {3}
     414:	2d656e6f 	stclcs	14, cr6, [r5, #-444]!	; 0xfffffe44
     418:	69626165 	stmdbvs	r2!, {r0, r2, r5, r6, r8, sp, lr}^
     41c:	62696c2f 	rsbvs	r6, r9, #12032	; 0x2f00
     420:	00636367 	rsbeq	r6, r3, r7, ror #6
     424:	20554e47 	subscs	r4, r5, r7, asr #28
     428:	32205341 	eorcc	r5, r0, #67108865	; 0x4000001
     42c:	0034322e 	eorseq	r3, r4, lr, lsr #4
     430:	00968001 	addseq	r8, r6, r1
     434:	00020000 	andeq	r0, r2, r0
     438:	0000008c 	andeq	r0, r0, ip, lsl #1
     43c:	05ab0104 	streq	r0, [fp, #260]!	; 0x104
     440:	b6300000 	ldrtlt	r0, [r0], -r0
     444:	b68c0000 	strlt	r0, [ip], r0
     448:	2e2e0000 	cdpcs	0, 2, cr0, cr14, cr0, {0}
     44c:	2f2e2e2f 	svccs	0x002e2e2f
     450:	2e2f2e2e 	cdpcs	14, 2, cr2, cr15, cr14, {1}
     454:	72732f2e 	rsbsvc	r2, r3, #46, 30	; 0xb8
     458:	63672f63 	cmnvs	r7, #396	; 0x18c
     45c:	2e342d63 	cdpcs	13, 3, cr2, cr4, cr3, {3}
     460:	2f312e38 	svccs	0x00312e38
     464:	6762696c 	strbvs	r6, [r2, -ip, ror #18]!
     468:	632f6363 	teqvs	pc, #-1946157055	; 0x8c000001
     46c:	69666e6f 	stmdbvs	r6!, {r0, r1, r2, r3, r5, r6, r9, sl, fp, sp, lr}^
     470:	72612f67 	rsbvc	r2, r1, #412	; 0x19c
     474:	65692f6d 	strbvs	r2, [r9, #-3949]!	; 0xf6d
     478:	35376565 	ldrcc	r6, [r7, #-1381]!	; 0x565
     47c:	66642d34 			; <UNDEFINED> instruction: 0x66642d34
     480:	2f00532e 	svccs	0x0000532e
     484:	2f706d74 	svccs	0x00706d74
     488:	72756f63 	rsbsvc	r6, r5, #396	; 0x18c
     48c:	6f5f6573 	svcvs	0x005f6573
     490:	61742f73 	cmnvs	r4, r3, ror pc
     494:	74656772 	strbtvc	r6, [r5], #-1906	; 0x772
     498:	6975622f 	ldmdbvs	r5!, {r0, r1, r2, r3, r5, r9, sp, lr}^
     49c:	672f646c 	strvs	r6, [pc, -ip, ror #8]!
     4a0:	342d6363 	strtcc	r6, [sp], #-867	; 0x363
     4a4:	312e382e 	teqcc	lr, lr, lsr #16
     4a8:	6d72612f 	ldfvse	f6, [r2, #-188]!	; 0xffffff44
     4ac:	6e6f6e2d 	cdpvs	14, 6, cr6, cr15, cr13, {1}
     4b0:	61652d65 	cmnvs	r5, r5, ror #26
     4b4:	6c2f6962 	stcvs	9, cr6, [pc], #-392	; 334 <_init-0x7ccc>
     4b8:	63676269 	cmnvs	r7, #-1879048186	; 0x90000006
     4bc:	4e470063 	cdpmi	0, 4, cr0, cr7, cr3, {3}
     4c0:	53412055 	movtpl	r2, #4181	; 0x1055
     4c4:	322e3220 	eorcc	r3, lr, #32, 4
     4c8:	80010034 	andhi	r0, r1, r4, lsr r0
     4cc:	00000096 	muleq	r0, r6, r0
     4d0:	00a00002 	adceq	r0, r0, r2
     4d4:	01040000 	mrseq	r0, (UNDEF: 4)
     4d8:	0000062a 	andeq	r0, r0, sl, lsr #12
     4dc:	0000b68c 	andeq	fp, r0, ip, lsl #13
     4e0:	0000b6e0 	andeq	fp, r0, r0, ror #13
     4e4:	2e2f2e2e 	cdpcs	14, 2, cr2, cr15, cr14, {1}
     4e8:	2e2e2f2e 	cdpcs	15, 2, cr2, cr14, cr14, {1}
     4ec:	2f2e2e2f 	svccs	0x002e2e2f
     4f0:	2f637273 	svccs	0x00637273
     4f4:	2d636367 	stclcs	3, cr6, [r3, #-412]!	; 0xfffffe64
     4f8:	2e382e34 	mrccs	14, 1, r2, cr8, cr4, {1}
     4fc:	696c2f31 	stmdbvs	ip!, {r0, r4, r5, r8, r9, sl, fp, sp}^
     500:	63636762 	cmnvs	r3, #25690112	; 0x1880000
     504:	6e6f632f 	cdpvs	3, 6, cr6, cr15, cr15, {1}
     508:	2f676966 	svccs	0x00676966
     50c:	2f6d7261 	svccs	0x006d7261
     510:	65656569 	strbvs	r6, [r5, #-1385]!	; 0x569
     514:	2d343537 	cfldr32cs	mvfx3, [r4, #-220]!	; 0xffffff24
     518:	532e6664 	teqpl	lr, #100, 12	; 0x6400000
     51c:	6d742f00 	ldclvs	15, cr2, [r4, #-0]
     520:	6f632f70 	svcvs	0x00632f70
     524:	65737275 	ldrbvs	r7, [r3, #-629]!	; 0x275
     528:	2f736f5f 	svccs	0x00736f5f
     52c:	67726174 			; <UNDEFINED> instruction: 0x67726174
     530:	622f7465 	eorvs	r7, pc, #1694498816	; 0x65000000
     534:	646c6975 	strbtvs	r6, [ip], #-2421	; 0x975
     538:	6363672f 	cmnvs	r3, #12320768	; 0xbc0000
     53c:	382e342d 	stmdacc	lr!, {r0, r2, r3, r5, sl, ip, sp}
     540:	612f312e 	teqvs	pc, lr, lsr #2
     544:	6e2d6d72 	mcrvs	13, 1, r6, cr13, cr2, {3}
     548:	2d656e6f 	stclcs	14, cr6, [r5, #-444]!	; 0xfffffe44
     54c:	69626165 	stmdbvs	r2!, {r0, r2, r5, r6, r8, sp, lr}^
     550:	62696c2f 	rsbvs	r6, r9, #12032	; 0x2f00
     554:	00636367 	rsbeq	r6, r3, r7, ror #6
     558:	20554e47 	subscs	r4, r5, r7, asr #28
     55c:	32205341 	eorcc	r5, r0, #67108865	; 0x4000001
     560:	0034322e 	eorseq	r3, r4, lr, lsr #4
     564:	00918001 	addseq	r8, r1, r1
     568:	00020000 	andeq	r0, r2, r0
     56c:	000000b4 	strheq	r0, [r0], -r4
     570:	06a70104 	strteq	r0, [r7], r4, lsl #2
     574:	b6e00000 	strbtlt	r0, [r0], r0
     578:	b71c0000 	ldrlt	r0, [ip, -r0]
     57c:	2e2e0000 	cdpcs	0, 2, cr0, cr14, cr0, {0}
     580:	2f2e2e2f 	svccs	0x002e2e2f
     584:	2e2f2e2e 	cdpcs	14, 2, cr2, cr15, cr14, {1}
     588:	72732f2e 	rsbsvc	r2, r3, #46, 30	; 0xb8
     58c:	63672f63 	cmnvs	r7, #396	; 0x18c
     590:	2e342d63 	cdpcs	13, 3, cr2, cr4, cr3, {3}
     594:	2f312e38 	svccs	0x00312e38
     598:	6762696c 	strbvs	r6, [r2, -ip, ror #18]!
     59c:	632f6363 	teqvs	pc, #-1946157055	; 0x8c000001
     5a0:	69666e6f 	stmdbvs	r6!, {r0, r1, r2, r3, r5, r6, r9, sl, fp, sp, lr}^
     5a4:	72612f67 	rsbvc	r2, r1, #412	; 0x19c
     5a8:	70622f6d 	rsbvc	r2, r2, sp, ror #30
     5ac:	2e696261 	cdpcs	2, 6, cr6, cr9, cr1, {3}
     5b0:	742f0053 	strtvc	r0, [pc], #-83	; 5b8 <_init-0x7a48>
     5b4:	632f706d 	teqvs	pc, #109	; 0x6d
     5b8:	7372756f 	cmnvc	r2, #465567744	; 0x1bc00000
     5bc:	736f5f65 	cmnvc	pc, #404	; 0x194
     5c0:	7261742f 	rsbvc	r7, r1, #788529152	; 0x2f000000
     5c4:	2f746567 	svccs	0x00746567
     5c8:	6c697562 	cfstr64vs	mvdx7, [r9], #-392	; 0xfffffe78
     5cc:	63672f64 	cmnvs	r7, #100, 30	; 0x190
     5d0:	2e342d63 	cdpcs	13, 3, cr2, cr4, cr3, {3}
     5d4:	2f312e38 	svccs	0x00312e38
     5d8:	2d6d7261 	sfmcs	f7, 2, [sp, #-388]!	; 0xfffffe7c
     5dc:	656e6f6e 	strbvs	r6, [lr, #-3950]!	; 0xf6e
     5e0:	6261652d 	rsbvs	r6, r1, #188743680	; 0xb400000
     5e4:	696c2f69 	stmdbvs	ip!, {r0, r3, r5, r6, r8, r9, sl, fp, sp}^
     5e8:	63636762 	cmnvs	r3, #25690112	; 0x1880000
     5ec:	554e4700 	strbpl	r4, [lr, #-1792]	; 0x700
     5f0:	20534120 	subscs	r4, r3, r0, lsr #2
     5f4:	34322e32 	ldrtcc	r2, [r2], #-3634	; 0xe32
     5f8:	60800100 	addvs	r0, r0, r0, lsl #2
     5fc:	04000001 	streq	r0, [r0], #-1
     600:	0000c800 	andeq	ip, r0, r0, lsl #16
     604:	1f010400 	svcne	0x00010400
     608:	01000000 	mrseq	r0, (UNDEF: 0)
     60c:	00000087 	andeq	r0, r0, r7, lsl #1
     610:	000000ea 	andeq	r0, r0, sl, ror #1
     614:	0000b71c 	andeq	fp, r0, ip, lsl r7
     618:	00000084 	andeq	r0, r0, r4, lsl #1
     61c:	00000714 	andeq	r0, r0, r4, lsl r7
     620:	c5070802 	strgt	r0, [r7, #-2050]	; 0x802
     624:	03000000 	movweq	r0, #0
     628:	00000125 	andeq	r0, r0, r5, lsr #2
     62c:	00a62301 	adceq	r2, r6, r1, lsl #6
     630:	b71c0000 	ldrlt	r0, [ip, -r0]
     634:	00440000 	subeq	r0, r4, r0
     638:	9c010000 	stcls	0, cr0, [r1], {-0}
     63c:	000000a6 	andeq	r0, r0, r6, lsr #1
     640:	01006104 	tsteq	r0, r4, lsl #2
     644:	0000a623 	andeq	sl, r0, r3, lsr #12
     648:	00000000 	andeq	r0, r0, r0
     64c:	00620400 	rsbeq	r0, r2, r0, lsl #8
     650:	00a62401 	adceq	r2, r6, r1, lsl #8
     654:	00280000 	eoreq	r0, r8, r0
     658:	bb050000 	bllt	140660 <_stack+0xc0660>
     65c:	01000000 	mrseq	r0, (UNDEF: 0)
     660:	0000ad25 	andeq	sl, r0, r5, lsr #26
     664:	00910200 	addseq	r0, r1, r0, lsl #4
     668:	00014406 	andeq	r4, r1, r6, lsl #8
     66c:	a6270100 	strtge	r0, [r7], -r0, lsl #2
     670:	06000000 	streq	r0, [r0], -r0
     674:	51049350 	tstpl	r4, r0, asr r3
     678:	38070493 	stmdacc	r7, {r0, r1, r4, r7, sl}
     67c:	330000b7 	movwcc	r0, #183	; 0xb7
     680:	08000001 	stmdaeq	r0, {r0}
     684:	04935206 	ldreq	r5, [r3], #518	; 0x206
     688:	05049353 	streq	r9, [r4, #-851]	; 0x353
     68c:	02f503f3 	rscseq	r0, r5, #-872415229	; 0xcc000003
     690:	50060825 	andpl	r0, r6, r5, lsr #16
     694:	93510493 	cmpls	r1, #-1828716544	; 0x93000000
     698:	03f30504 	mvnseq	r0, #4, 10	; 0x1000000
     69c:	002500f5 	strdeq	r0, [r5], -r5	; <UNPREDICTABLE>
     6a0:	05080200 	streq	r0, [r8, #-512]	; 0x200
     6a4:	000000dc 	ldrdeq	r0, [r0], -ip
     6a8:	00a60409 	adceq	r0, r6, r9, lsl #8
     6ac:	09030000 	stmdbeq	r3, {}	; <UNPREDICTABLE>
     6b0:	01000000 	mrseq	r0, (UNDEF: 0)
     6b4:	0000252f 	andeq	r2, r0, pc, lsr #10
     6b8:	00b76000 	adcseq	r6, r7, r0
     6bc:	00004000 	andeq	r4, r0, r0
     6c0:	2d9c0100 	ldfcss	f0, [ip]
     6c4:	04000001 	streq	r0, [r0], #-1
     6c8:	2f010061 	svccs	0x00010061
     6cc:	00000025 	andeq	r0, r0, r5, lsr #32
     6d0:	00000050 	andeq	r0, r0, r0, asr r0
     6d4:	01006204 	tsteq	r0, r4, lsl #4
     6d8:	00002530 	andeq	r2, r0, r0, lsr r5
     6dc:	00007800 	andeq	r7, r0, r0, lsl #16
     6e0:	00bb0500 	adcseq	r0, fp, r0, lsl #10
     6e4:	31010000 	mrscc	r0, (UNDEF: 1)
     6e8:	0000012d 	andeq	r0, r0, sp, lsr #2
     6ec:	06009102 	streq	r9, [r0], -r2, lsl #2
     6f0:	00000144 	andeq	r0, r0, r4, asr #2
     6f4:	00253301 	eoreq	r3, r5, r1, lsl #6
     6f8:	50060000 	andpl	r0, r6, r0
     6fc:	93510493 	cmpls	r1, #-1828716544	; 0x93000000
     700:	b77c0704 	ldrblt	r0, [ip, -r4, lsl #14]!
     704:	014d0000 	mrseq	r0, (UNDEF: 77)
     708:	06080000 	streq	r0, [r8], -r0
     70c:	53049352 	movwpl	r9, #17234	; 0x4352
     710:	f3050493 	vqshl.u8	d0, d3, d21
     714:	2502f503 	strcs	pc, [r2, #-1283]	; 0x503
     718:	93500608 	cmpls	r0, #8, 12	; 0x800000
     71c:	04935104 	ldreq	r5, [r3], #260	; 0x104
     720:	f503f305 			; <UNDEFINED> instruction: 0xf503f305
     724:	00002500 	andeq	r2, r0, r0, lsl #10
     728:	00250409 	eoreq	r0, r5, r9, lsl #8
     72c:	000a0000 	andeq	r0, sl, r0
     730:	01000000 	mrseq	r0, (UNDEF: 0)
     734:	0000a619 	andeq	sl, r0, r9, lsl r6
     738:	00014d00 	andeq	r4, r1, r0, lsl #26
     73c:	00a60b00 	adceq	r0, r6, r0, lsl #22
     740:	a60b0000 	strge	r0, [fp], -r0
     744:	00000000 	andeq	r0, r0, r0
     748:	00013a0c 	andeq	r3, r1, ip, lsl #20
     74c:	251a0100 	ldrcs	r0, [sl, #-256]	; 0x100
     750:	0b000000 	bleq	758 <_init-0x78a8>
     754:	00000025 	andeq	r0, r0, r5, lsr #32
     758:	0000250b 	andeq	r2, r0, fp, lsl #10
     75c:	c0000000 	andgt	r0, r0, r0
     760:	04000005 	streq	r0, [r0], #-5
     764:	00017f00 	andeq	r7, r1, r0, lsl #30
     768:	f0010400 			; <UNDEFINED> instruction: 0xf0010400
     76c:	01000001 	tsteq	r0, r1
     770:	00000161 	andeq	r0, r0, r1, ror #2
     774:	000000ea 	andeq	r0, r0, sl, ror #1
     778:	0000b7a0 	andeq	fp, r0, r0, lsr #15
     77c:	000004d0 	ldrdeq	r0, [r0], -r0	; <UNPREDICTABLE>
     780:	00000782 	andeq	r0, r0, r2, lsl #15
     784:	c5070802 	strgt	r0, [r7, #-2050]	; 0x802
     788:	03000000 	movweq	r0, #0
     78c:	6e690504 	cdpvs	5, 6, cr0, cr9, cr4, {0}
     790:	04020074 	streq	r0, [r2], #-116	; 0x74
     794:	0000cf07 	andeq	ip, r0, r7, lsl #30
     798:	06010200 	streq	r0, [r1], -r0, lsl #4
     79c:	00000196 	muleq	r0, r6, r1
     7a0:	94080102 	strls	r0, [r8], #-258	; 0x102
     7a4:	02000001 	andeq	r0, r0, #1
     7a8:	02650502 	rsbeq	r0, r5, #8388608	; 0x800000
     7ac:	02020000 	andeq	r0, r2, #0
     7b0:	0001a207 	andeq	sl, r1, r7, lsl #4
     7b4:	05080200 	streq	r0, [r8, #-512]	; 0x200
     7b8:	000000dc 	ldrdeq	r0, [r0], -ip
     7bc:	e1050402 	tst	r5, r2, lsl #8
     7c0:	02000000 	andeq	r0, r0, #0
     7c4:	01e20704 	mvneq	r0, r4, lsl #14
     7c8:	04020000 	streq	r0, [r2], #-0
     7cc:	0000ca07 	andeq	ip, r0, r7, lsl #20
     7d0:	08010200 	stmdaeq	r1, {r9}
     7d4:	0000019d 	muleq	r0, sp, r1
     7d8:	00018d04 	andeq	r8, r1, r4, lsl #26
     7dc:	2c810200 	sfmcs	f0, 4, [r1], {0}
     7e0:	04000000 	streq	r0, [r0], #-0
     7e4:	0000018c 	andeq	r0, r0, ip, lsl #3
     7e8:	00338202 	eorseq	r8, r3, r2, lsl #4
     7ec:	cd040000 	stcgt	0, cr0, [r4, #-0]
     7f0:	02000001 	andeq	r0, r0, #1
     7f4:	00005685 	andeq	r5, r0, r5, lsl #13
     7f8:	01cc0400 	biceq	r0, ip, r0, lsl #8
     7fc:	86020000 	strhi	r0, [r2], -r0
     800:	00000025 	andeq	r0, r0, r5, lsr #32
     804:	dc040402 	cfstrsle	mvf0, [r4], {2}
     808:	02000001 	andeq	r0, r0, #1
     80c:	01d40308 	bicseq	r0, r4, r8, lsl #6
     810:	08020000 	stmdaeq	r2, {}	; <UNPREDICTABLE>
     814:	00027704 	andeq	r7, r2, r4, lsl #14
     818:	03100200 	tsteq	r0, #0, 4
     81c:	0000026f 	andeq	r0, r0, pc, ror #4
     820:	00027e05 	andeq	r7, r2, r5, lsl #28
     824:	e3020800 	movw	r0, #10240	; 0x2800
     828:	0000e901 	andeq	lr, r0, r1, lsl #18
     82c:	6f6c0600 	svcvs	0x006c0600
     830:	e3020077 	movw	r0, #8311	; 0x2077
     834:	00007901 	andeq	r7, r0, r1, lsl #18
     838:	57070000 	strpl	r0, [r7, -r0]
     83c:	02000001 	andeq	r0, r0, #1
     840:	007901e3 	rsbseq	r0, r9, r3, ror #3
     844:	00040000 	andeq	r0, r4, r0
     848:	ea020808 	b	82870 <_stack+0x2870>
     84c:	00010801 	andeq	r0, r1, r1, lsl #16
     850:	00730900 	rsbseq	r0, r3, r0, lsl #18
     854:	c101ec02 	tstgt	r1, r2, lsl #24
     858:	09000000 	stmdbeq	r0, {}	; <UNPREDICTABLE>
     85c:	02006c6c 	andeq	r6, r0, #108, 24	; 0x6c00
     860:	008f01ed 	addeq	r0, pc, sp, ror #3
     864:	0a000000 	beq	86c <_init-0x7794>
     868:	000001b5 			; <UNDEFINED> instruction: 0x000001b5
     86c:	e901ee02 	stmdb	r1, {r1, r9, sl, fp, sp, lr, pc}
     870:	0b000000 	bleq	878 <_init-0x7788>
     874:	00000287 	andeq	r0, r0, r7, lsl #5
     878:	9a038601 	bls	e2084 <_stack+0x62084>
     87c:	03000000 	movweq	r0, #0
     880:	00000361 	andeq	r0, r0, r1, ror #6
     884:	01006e0c 	tsteq	r0, ip, lsl #28
     888:	009a0386 	addseq	r0, sl, r6, lsl #7
     88c:	640c0000 	strvs	r0, [ip], #-0
     890:	03860100 	orreq	r0, r6, #0, 2
     894:	0000009a 	muleq	r0, sl, r0
     898:	0070720c 	rsbseq	r7, r0, ip, lsl #4
     89c:	61038601 	tstvs	r3, r1, lsl #12
     8a0:	0d000003 	stceq	0, cr0, [r0, #-12]
     8a4:	01006e6e 	tsteq	r0, lr, ror #28
     8a8:	03670388 	cmneq	r7, #136, 6	; 0x20000002
     8ac:	640d0000 	strvs	r0, [sp], #-0
     8b0:	89010064 	stmdbhi	r1, {r2, r5, r6}
     8b4:	00036703 	andeq	r6, r3, r3, lsl #14
     8b8:	72720d00 	rsbsvc	r0, r2, #0, 26
     8bc:	038a0100 	orreq	r0, sl, #0, 2
     8c0:	00000108 	andeq	r0, r0, r8, lsl #2
     8c4:	0030640d 	eorseq	r6, r0, sp, lsl #8
     8c8:	84038b01 	strhi	r8, [r3], #-2817	; 0xb01
     8cc:	0d000000 	stceq	0, cr0, [r0, #-0]
     8d0:	01003164 	tsteq	r0, r4, ror #2
     8d4:	0084038b 	addeq	r0, r4, fp, lsl #7
     8d8:	6e0d0000 	cdpvs	0, 0, cr0, cr13, cr0, {0}
     8dc:	8b010030 	blhi	409a4 <__bss_end__+0x2b9ec>
     8e0:	00008403 	andeq	r8, r0, r3, lsl #8
     8e4:	316e0d00 	cmncc	lr, r0, lsl #26
     8e8:	038b0100 	orreq	r0, fp, #0, 2
     8ec:	00000084 	andeq	r0, r0, r4, lsl #1
     8f0:	00326e0d 	eorseq	r6, r2, sp, lsl #28
     8f4:	84038b01 	strhi	r8, [r3], #-2817	; 0xb01
     8f8:	0d000000 	stceq	0, cr0, [r0, #-0]
     8fc:	01003071 	tsteq	r0, r1, ror r0
     900:	0084038c 	addeq	r0, r4, ip, lsl #7
     904:	710d0000 	mrsvc	r0, (UNDEF: 13)
     908:	8c010031 	stchi	0, cr0, [r1], {49}	; 0x31
     90c:	00008403 	andeq	r8, r0, r3, lsl #8
     910:	00620d00 	rsbeq	r0, r2, r0, lsl #26
     914:	84038d01 	strhi	r8, [r3], #-3329	; 0xd01
     918:	0d000000 	stceq	0, cr0, [r0, #-0]
     91c:	01006d62 	tsteq	r0, r2, ror #26
     920:	0084038d 	addeq	r0, r4, sp, lsl #7
     924:	770d0000 	strvc	r0, [sp, -r0]
     928:	56010077 			; <UNDEFINED> instruction: 0x56010077
     92c:	00036704 	andeq	r6, r3, r4, lsl #14
     930:	022c0e00 	eoreq	r0, ip, #0, 28
     934:	eb0f0000 	bl	3c093c <_stack+0x34093c>
     938:	01000001 	tsteq	r0, r1
     93c:	008403c9 	addeq	r0, r4, r9, asr #7
     940:	bd0f0000 	stclt	0, cr0, [pc, #-0]	; 948 <_init-0x76b8>
     944:	01000001 	tsteq	r0, r1
     948:	008403c9 	addeq	r0, r4, r9, asr #7
     94c:	c70f0000 	strgt	r0, [pc, -r0]
     950:	01000001 	tsteq	r0, r1
     954:	008403c9 	addeq	r0, r4, r9, asr #7
     958:	c20f0000 	andgt	r0, pc, #0
     95c:	01000001 	tsteq	r0, r1
     960:	008403c9 	addeq	r0, r4, r9, asr #7
     964:	520f0000 	andpl	r0, pc, #0
     968:	01000001 	tsteq	r0, r1
     96c:	008403c9 	addeq	r0, r4, r9, asr #7
     970:	4d0f0000 	stcmi	0, cr0, [pc, #-0]	; 978 <_init-0x7688>
     974:	01000001 	tsteq	r0, r1
     978:	008403c9 	addeq	r0, r4, r9, asr #7
     97c:	5f0d0000 	svcpl	0x000d0000
     980:	01006d5f 	tsteq	r0, pc, asr sp
     984:	008403c9 	addeq	r0, r4, r9, asr #7
     988:	0e000000 	cdpeq	0, 0, cr0, cr0, cr0, {0}
     98c:	00000286 	andeq	r0, r0, r6, lsl #5
     990:	0001eb0f 	andeq	lr, r1, pc, lsl #22
     994:	03ee0100 	mvneq	r0, #0, 2
     998:	00000084 	andeq	r0, r0, r4, lsl #1
     99c:	0001bd0f 	andeq	fp, r1, pc, lsl #26
     9a0:	03ee0100 	mvneq	r0, #0, 2
     9a4:	00000084 	andeq	r0, r0, r4, lsl #1
     9a8:	0001c70f 	andeq	ip, r1, pc, lsl #14
     9ac:	03ee0100 	mvneq	r0, #0, 2
     9b0:	00000084 	andeq	r0, r0, r4, lsl #1
     9b4:	0001c20f 	andeq	ip, r1, pc, lsl #4
     9b8:	03ee0100 	mvneq	r0, #0, 2
     9bc:	00000084 	andeq	r0, r0, r4, lsl #1
     9c0:	0001520f 	andeq	r5, r1, pc, lsl #4
     9c4:	03ee0100 	mvneq	r0, #0, 2
     9c8:	00000084 	andeq	r0, r0, r4, lsl #1
     9cc:	00014d0f 	andeq	r4, r1, pc, lsl #26
     9d0:	03ee0100 	mvneq	r0, #0, 2
     9d4:	00000084 	andeq	r0, r0, r4, lsl #1
     9d8:	6d5f5f0d 	ldclvs	15, cr5, [pc, #-52]	; 9ac <_init-0x7654>
     9dc:	03ee0100 	mvneq	r0, #0, 2
     9e0:	00000084 	andeq	r0, r0, r4, lsl #1
     9e4:	02e00e00 	rsceq	r0, r0, #0, 28
     9e8:	eb0f0000 	bl	3c09f0 <_stack+0x3409f0>
     9ec:	01000001 	tsteq	r0, r1
     9f0:	008403f3 	strdeq	r0, [r4], r3
     9f4:	bd0f0000 	stclt	0, cr0, [pc, #-0]	; 9fc <_init-0x7604>
     9f8:	01000001 	tsteq	r0, r1
     9fc:	008403f3 	strdeq	r0, [r4], r3
     a00:	c70f0000 	strgt	r0, [pc, -r0]
     a04:	01000001 	tsteq	r0, r1
     a08:	008403f3 	strdeq	r0, [r4], r3
     a0c:	c20f0000 	andgt	r0, pc, #0
     a10:	01000001 	tsteq	r0, r1
     a14:	008403f3 	strdeq	r0, [r4], r3
     a18:	520f0000 	andpl	r0, pc, #0
     a1c:	01000001 	tsteq	r0, r1
     a20:	008403f3 	strdeq	r0, [r4], r3
     a24:	4d0f0000 	stcmi	0, cr0, [pc, #-0]	; a2c <_init-0x75d4>
     a28:	01000001 	tsteq	r0, r1
     a2c:	008403f3 	strdeq	r0, [r4], r3
     a30:	5f0d0000 	svcpl	0x000d0000
     a34:	01006d5f 	tsteq	r0, pc, asr sp
     a38:	008403f3 	strdeq	r0, [r4], r3
     a3c:	10000000 	andne	r0, r0, r0
     a40:	00316d0d 	eorseq	r6, r1, sp, lsl #26
     a44:	84043401 	strhi	r3, [r4], #-1025	; 0x401
     a48:	0d000000 	stceq	0, cr0, [r0, #-0]
     a4c:	0100306d 	tsteq	r0, sp, rrx
     a50:	00840434 	addeq	r0, r4, r4, lsr r4
     a54:	510e0000 	mrspl	r0, (UNDEF: 14)
     a58:	0f000003 	svceq	0x00000003
     a5c:	000001eb 	andeq	r0, r0, fp, ror #3
     a60:	84043f01 	strhi	r3, [r4], #-3841	; 0xf01
     a64:	0f000000 	svceq	0x00000000
     a68:	000001bd 			; <UNDEFINED> instruction: 0x000001bd
     a6c:	84043f01 	strhi	r3, [r4], #-3841	; 0xf01
     a70:	0f000000 	svceq	0x00000000
     a74:	000001c7 	andeq	r0, r0, r7, asr #3
     a78:	84043f01 	strhi	r3, [r4], #-3841	; 0xf01
     a7c:	0f000000 	svceq	0x00000000
     a80:	000001c2 	andeq	r0, r0, r2, asr #3
     a84:	84043f01 	strhi	r3, [r4], #-3841	; 0xf01
     a88:	0f000000 	svceq	0x00000000
     a8c:	00000152 	andeq	r0, r0, r2, asr r1
     a90:	84043f01 	strhi	r3, [r4], #-3841	; 0xf01
     a94:	0f000000 	svceq	0x00000000
     a98:	0000014d 	andeq	r0, r0, sp, asr #2
     a9c:	84043f01 	strhi	r3, [r4], #-3841	; 0xf01
     aa0:	0d000000 	stceq	0, cr0, [r0, #-0]
     aa4:	006d5f5f 	rsbeq	r5, sp, pc, asr pc
     aa8:	84043f01 	strhi	r3, [r4], #-3841	; 0xf01
     aac:	00000000 	andeq	r0, r0, r0
     ab0:	015c0f10 	cmpeq	ip, r0, lsl pc
     ab4:	40010000 	andmi	r0, r1, r0
     ab8:	00009a04 	andeq	r9, r0, r4, lsl #20
     abc:	00000000 	andeq	r0, r0, r0
     ac0:	009a0411 	addseq	r0, sl, r1, lsl r4
     ac4:	08120000 	ldmdaeq	r2, {}	; <UNPREDICTABLE>
     ac8:	13000001 	movwne	r0, #1
     acc:	00000000 	andeq	r0, r0, r0
     ad0:	8f045d01 	svchi	0x00045d01
     ad4:	a0000000 	andge	r0, r0, r0
     ad8:	d00000b7 	strhle	r0, [r0], -r7
     adc:	01000004 	tsteq	r0, r4
     ae0:	0075149c 			; <UNDEFINED> instruction: 0x0075149c
     ae4:	8f045d01 	svchi	0x00045d01
     ae8:	a0000000 	andge	r0, r0, r0
     aec:	14000000 	strne	r0, [r0], #-0
     af0:	5d010076 	stcpl	0, cr0, [r1, #-472]	; 0xfffffe28
     af4:	00008f04 	andeq	r8, r0, r4, lsl #30
     af8:	00012800 	andeq	r2, r1, r0, lsl #16
     afc:	00631500 	rsbeq	r1, r3, r0, lsl #10
     b00:	79045f01 	stmdbvc	r4, {r0, r8, r9, sl, fp, ip, lr}
     b04:	7f000000 	svcvc	0x00000000
     b08:	0d000001 	stceq	0, cr0, [r0, #-4]
     b0c:	01007575 	tsteq	r0, r5, ror r5
     b10:	01080460 	tsteq	r8, r0, ror #8
     b14:	760d0000 	strvc	r0, [sp], -r0
     b18:	61010076 	tstvs	r1, r6, ror r0
     b1c:	00010804 	andeq	r0, r1, r4, lsl #16
     b20:	00771500 	rsbseq	r1, r7, r0, lsl #10
     b24:	8f046201 	svchi	0x00046201
     b28:	aa000000 	bge	b30 <_init-0x74d0>
     b2c:	16000001 	strne	r0, [r0], -r1
     b30:	00000114 	andeq	r0, r0, r4, lsl r1
     b34:	0000b7cc 	andeq	fp, r0, ip, asr #15
     b38:	00000000 	andeq	r0, r0, r0
     b3c:	17046b01 	strne	r6, [r4, -r1, lsl #22]
     b40:	00000139 	andeq	r0, r0, r9, lsr r1
     b44:	000001c2 	andeq	r0, r0, r2, asr #3
     b48:	00012f17 	andeq	r2, r1, r7, lsl pc
     b4c:	0001e200 	andeq	lr, r1, r0, lsl #4
     b50:	01251700 	teqeq	r5, r0, lsl #14
     b54:	021a0000 	andseq	r0, sl, #0
     b58:	00180000 	andseq	r0, r8, r0
     b5c:	19000000 	stmdbne	r0, {}	; <UNPREDICTABLE>
     b60:	00000144 	andeq	r0, r0, r4, asr #2
     b64:	00000262 	andeq	r0, r0, r2, ror #4
     b68:	00014f19 	andeq	r4, r1, r9, lsl pc
     b6c:	00028a00 	andeq	r8, r2, r0, lsl #20
     b70:	015a1a00 	cmpeq	sl, r0, lsl #20
     b74:	65190000 	ldrvs	r0, [r9, #-0]
     b78:	c2000001 	andgt	r0, r0, #1
     b7c:	19000002 	stmdbne	r0, {r1}
     b80:	00000170 	andeq	r0, r0, r0, ror r1
     b84:	00000347 	andeq	r0, r0, r7, asr #6
     b88:	00017b19 	andeq	r7, r1, r9, lsl fp
     b8c:	00038600 	andeq	r8, r3, r0, lsl #12
     b90:	01861900 	orreq	r1, r6, r0, lsl #18
     b94:	04110000 	ldreq	r0, [r1], #-0
     b98:	91190000 	tstls	r9, r0
     b9c:	9d000001 	stcls	0, cr0, [r0, #-4]
     ba0:	19000004 	stmdbne	r0, {r2}
     ba4:	0000019c 	muleq	r0, ip, r1
     ba8:	000004bb 			; <UNDEFINED> instruction: 0x000004bb
     bac:	0001a719 	andeq	sl, r1, r9, lsl r7
     bb0:	00052000 	andeq	r2, r5, r0
     bb4:	01b21900 			; <UNDEFINED> instruction: 0x01b21900
     bb8:	055d0000 	ldrbeq	r0, [sp, #-0]
     bbc:	bc190000 	ldclt	0, cr0, [r9], {-0}
     bc0:	eb000001 	bl	bcc <_init-0x7434>
     bc4:	1a000005 	bne	be0 <_init-0x7420>
     bc8:	000001c7 	andeq	r0, r0, r7, asr #3
     bcc:	00b8181b 	adcseq	r1, r8, fp, lsl r8
     bd0:	0000b800 	andeq	fp, r0, r0, lsl #16
     bd4:	0004ba00 	andeq	fp, r4, r0, lsl #20
     bd8:	01d71900 	bicseq	r1, r7, r0, lsl #18
     bdc:	064b0000 	strbeq	r0, [fp], -r0
     be0:	e3190000 	tst	r9, #0
     be4:	5e000001 	cdppl	0, 0, cr0, cr0, cr1, {0}
     be8:	19000006 	stmdbne	r0, {r1, r2}
     bec:	000001ef 	andeq	r0, r0, pc, ror #3
     bf0:	00000682 	andeq	r0, r0, r2, lsl #13
     bf4:	0001fb19 	andeq	pc, r1, r9, lsl fp	; <UNPREDICTABLE>
     bf8:	0006b600 	andeq	fp, r6, r0, lsl #12
     bfc:	02071900 	andeq	r1, r7, #0, 18
     c00:	06ea0000 	strbteq	r0, [sl], r0
     c04:	13190000 	tstne	r9, #0
     c08:	23000002 	movwcs	r0, #2
     c0c:	19000007 	stmdbne	r0, {r0, r1, r2}
     c10:	0000021f 	andeq	r0, r0, pc, lsl r2
     c14:	00000746 	andeq	r0, r0, r6, asr #14
     c18:	00281c00 	eoreq	r1, r8, r0, lsl #24
     c1c:	05030000 	streq	r0, [r3, #-0]
     c20:	8b190000 	blhi	640c28 <_stack+0x5c0c28>
     c24:	64000002 	strvs	r0, [r0], #-2
     c28:	19000007 	stmdbne	r0, {r0, r1, r2}
     c2c:	00000297 	muleq	r0, r7, r2
     c30:	00000782 	andeq	r0, r0, r2, lsl #15
     c34:	0002a319 	andeq	sl, r2, r9, lsl r3
     c38:	0007a000 	andeq	sl, r7, r0
     c3c:	02af1900 	adceq	r1, pc, #0, 18
     c40:	07d40000 	ldrbeq	r0, [r4, r0]
     c44:	bb190000 	bllt	640c4c <_stack+0x5c0c4c>
     c48:	08000002 	stmdaeq	r0, {r1}
     c4c:	19000008 	stmdbne	r0, {r3}
     c50:	000002c7 	andeq	r0, r0, r7, asr #5
     c54:	0000084c 	andeq	r0, r0, ip, asr #16
     c58:	0002d319 	andeq	sp, r2, r9, lsl r3
     c5c:	00087f00 	andeq	r7, r8, r0, lsl #30
     c60:	401c0000 	andsmi	r0, ip, r0
     c64:	4c000000 	stcmi	0, cr0, [r0], {-0}
     c68:	19000005 	stmdbne	r0, {r0, r2}
     c6c:	00000231 	andeq	r0, r0, r1, lsr r2
     c70:	000008a8 	andeq	r0, r0, r8, lsr #17
     c74:	00023d19 	andeq	r3, r2, r9, lsl sp
     c78:	0008d100 	andeq	sp, r8, r0, lsl #2
     c7c:	02491900 	subeq	r1, r9, #0, 18
     c80:	08ef0000 	stmiaeq	pc!, {}^	; <UNPREDICTABLE>
     c84:	55190000 	ldrpl	r0, [r9, #-0]
     c88:	18000002 	stmdane	r0, {r1}
     c8c:	19000009 	stmdbne	r0, {r0, r3}
     c90:	00000261 	andeq	r0, r0, r1, ror #4
     c94:	00000957 	andeq	r0, r0, r7, asr r9
     c98:	00026d19 	andeq	r6, r2, r9, lsl sp
     c9c:	00099000 	andeq	r9, r9, r0
     ca0:	02791900 	rsbseq	r1, r9, #0, 18
     ca4:	09c90000 	stmibeq	r9, {}^	; <UNPREDICTABLE>
     ca8:	18000000 	stmdane	r0, {}	; <UNPREDICTABLE>
     cac:	00000060 	andeq	r0, r0, r0, rrx
     cb0:	0002e119 	andeq	lr, r2, r9, lsl r1
     cb4:	0009f200 	andeq	pc, r9, r0, lsl #4
     cb8:	02ec1900 	rsceq	r1, ip, #0, 18
     cbc:	0a050000 	beq	140cc4 <_stack+0xc0cc4>
     cc0:	781c0000 	ldmdavc	ip, {}	; <UNPREDICTABLE>
     cc4:	ac000000 	stcge	0, cr0, [r0], {-0}
     cc8:	19000005 	stmdbne	r0, {r0, r2}
     ccc:	000002fc 	strdeq	r0, [r0], -ip
     cd0:	00000a18 	andeq	r0, r0, r8, lsl sl
     cd4:	00030819 	andeq	r0, r3, r9, lsl r8
     cd8:	000a3600 	andeq	r3, sl, r0, lsl #12
     cdc:	03141900 	tsteq	r4, #0, 18
     ce0:	0a760000 	beq	1d80ce8 <_stack+0x1d00ce8>
     ce4:	20190000 	andscs	r0, r9, r0
     ce8:	b5000003 	strlt	r0, [r0, #-3]
     cec:	1900000a 	stmdbne	r0, {r1, r3}
     cf0:	0000032c 	andeq	r0, r0, ip, lsr #6
     cf4:	00000af4 	strdeq	r0, [r0], -r4
     cf8:	00033819 	andeq	r3, r3, r9, lsl r8
     cfc:	000b2800 	andeq	r2, fp, r0, lsl #16
     d00:	03441900 	movteq	r1, #18688	; 0x4900
     d04:	0b850000 	bleq	fe140d0c <_stack+0xfe0c0d0c>
     d08:	1d000000 	stcne	0, cr0, [r0, #-0]
     d0c:	0000bc14 	andeq	fp, r0, r4, lsl ip
     d10:	00000004 	andeq	r0, r0, r4
     d14:	00035219 	andeq	r5, r3, r9, lsl r2
     d18:	000bb900 	andeq	fp, fp, r0, lsl #18
     d1c:	00000000 	andeq	r0, r0, r0
     d20:	7f000000 	svcvc	0x00000000
     d24:	04000005 	streq	r0, [r0], #-5
     d28:	0002e400 	andeq	lr, r2, r0, lsl #8
     d2c:	f0010400 			; <UNDEFINED> instruction: 0xf0010400
     d30:	01000001 	tsteq	r0, r1
     d34:	00000161 	andeq	r0, r0, r1, ror #2
     d38:	000000ea 	andeq	r0, r0, sl, ror #1
     d3c:	0000bc70 	andeq	fp, r0, r0, ror ip
     d40:	00000470 	andeq	r0, r0, r0, ror r4
     d44:	0000086a 	andeq	r0, r0, sl, ror #16
     d48:	c5070802 	strgt	r0, [r7, #-2050]	; 0x802
     d4c:	03000000 	movweq	r0, #0
     d50:	6e690504 	cdpvs	5, 6, cr0, cr9, cr4, {0}
     d54:	04020074 	streq	r0, [r2], #-116	; 0x74
     d58:	0000cf07 	andeq	ip, r0, r7, lsl #30
     d5c:	06010200 	streq	r0, [r1], -r0, lsl #4
     d60:	00000196 	muleq	r0, r6, r1
     d64:	94080102 	strls	r0, [r8], #-258	; 0x102
     d68:	02000001 	andeq	r0, r0, #1
     d6c:	02650502 	rsbeq	r0, r5, #8388608	; 0x800000
     d70:	02020000 	andeq	r0, r2, #0
     d74:	0001a207 	andeq	sl, r1, r7, lsl #4
     d78:	05080200 	streq	r0, [r8, #-512]	; 0x200
     d7c:	000000dc 	ldrdeq	r0, [r0], -ip
     d80:	e1050402 	tst	r5, r2, lsl #8
     d84:	02000000 	andeq	r0, r0, #0
     d88:	01e20704 	mvneq	r0, r4, lsl #14
     d8c:	04020000 	streq	r0, [r2], #-0
     d90:	0000ca07 	andeq	ip, r0, r7, lsl #20
     d94:	08010200 	stmdaeq	r1, {r9}
     d98:	0000019d 	muleq	r0, sp, r1
     d9c:	00018d04 	andeq	r8, r1, r4, lsl #26
     da0:	2c810200 	sfmcs	f0, 4, [r1], {0}
     da4:	04000000 	streq	r0, [r0], #-0
     da8:	0000018c 	andeq	r0, r0, ip, lsl #3
     dac:	00338202 	eorseq	r8, r3, r2, lsl #4
     db0:	cd040000 	stcgt	0, cr0, [r4, #-0]
     db4:	02000001 	andeq	r0, r0, #1
     db8:	00005685 	andeq	r5, r0, r5, lsl #13
     dbc:	01cc0400 	biceq	r0, ip, r0, lsl #8
     dc0:	86020000 	strhi	r0, [r2], -r0
     dc4:	00000025 	andeq	r0, r0, r5, lsr #32
     dc8:	dc040402 	cfstrsle	mvf0, [r4], {2}
     dcc:	02000001 	andeq	r0, r0, #1
     dd0:	01d40308 	bicseq	r0, r4, r8, lsl #6
     dd4:	08020000 	stmdaeq	r2, {}	; <UNPREDICTABLE>
     dd8:	00027704 	andeq	r7, r2, r4, lsl #14
     ddc:	03100200 	tsteq	r0, #0, 4
     de0:	0000026f 	andeq	r0, r0, pc, ror #4
     de4:	00027e05 	andeq	r7, r2, r5, lsl #28
     de8:	e3020800 	movw	r0, #10240	; 0x2800
     dec:	0000e901 	andeq	lr, r0, r1, lsl #18
     df0:	6f6c0600 	svcvs	0x006c0600
     df4:	e3020077 	movw	r0, #8311	; 0x2077
     df8:	00007901 	andeq	r7, r0, r1, lsl #18
     dfc:	57070000 	strpl	r0, [r7, -r0]
     e00:	02000001 	andeq	r0, r0, #1
     e04:	007901e3 	rsbseq	r0, r9, r3, ror #3
     e08:	00040000 	andeq	r0, r4, r0
     e0c:	ea020808 	b	82e34 <_stack+0x2e34>
     e10:	00010801 	andeq	r0, r1, r1, lsl #16
     e14:	00730900 	rsbseq	r0, r3, r0, lsl #18
     e18:	c101ec02 	tstgt	r1, r2, lsl #24
     e1c:	09000000 	stmdbeq	r0, {}	; <UNPREDICTABLE>
     e20:	02006c6c 	andeq	r6, r0, #108, 24	; 0x6c00
     e24:	008f01ed 	addeq	r0, pc, sp, ror #3
     e28:	0a000000 	beq	e30 <_init-0x71d0>
     e2c:	000001b5 			; <UNDEFINED> instruction: 0x000001b5
     e30:	e901ee02 	stmdb	r1, {r1, r9, sl, fp, sp, lr, pc}
     e34:	0b000000 	bleq	e3c <_init-0x71c4>
     e38:	00000287 	andeq	r0, r0, r7, lsl #5
     e3c:	9a038601 	bls	e2648 <_stack+0x62648>
     e40:	03000000 	movweq	r0, #0
     e44:	00000361 	andeq	r0, r0, r1, ror #6
     e48:	01006e0c 	tsteq	r0, ip, lsl #28
     e4c:	009a0386 	addseq	r0, sl, r6, lsl #7
     e50:	640c0000 	strvs	r0, [ip], #-0
     e54:	03860100 	orreq	r0, r6, #0, 2
     e58:	0000009a 	muleq	r0, sl, r0
     e5c:	0070720c 	rsbseq	r7, r0, ip, lsl #4
     e60:	61038601 	tstvs	r3, r1, lsl #12
     e64:	0d000003 	stceq	0, cr0, [r0, #-12]
     e68:	01006e6e 	tsteq	r0, lr, ror #28
     e6c:	03670388 	cmneq	r7, #136, 6	; 0x20000002
     e70:	640d0000 	strvs	r0, [sp], #-0
     e74:	89010064 	stmdbhi	r1, {r2, r5, r6}
     e78:	00036703 	andeq	r6, r3, r3, lsl #14
     e7c:	72720d00 	rsbsvc	r0, r2, #0, 26
     e80:	038a0100 	orreq	r0, sl, #0, 2
     e84:	00000108 	andeq	r0, r0, r8, lsl #2
     e88:	0030640d 	eorseq	r6, r0, sp, lsl #8
     e8c:	84038b01 	strhi	r8, [r3], #-2817	; 0xb01
     e90:	0d000000 	stceq	0, cr0, [r0, #-0]
     e94:	01003164 	tsteq	r0, r4, ror #2
     e98:	0084038b 	addeq	r0, r4, fp, lsl #7
     e9c:	6e0d0000 	cdpvs	0, 0, cr0, cr13, cr0, {0}
     ea0:	8b010030 	blhi	40f68 <__bss_end__+0x2bfb0>
     ea4:	00008403 	andeq	r8, r0, r3, lsl #8
     ea8:	316e0d00 	cmncc	lr, r0, lsl #26
     eac:	038b0100 	orreq	r0, fp, #0, 2
     eb0:	00000084 	andeq	r0, r0, r4, lsl #1
     eb4:	00326e0d 	eorseq	r6, r2, sp, lsl #28
     eb8:	84038b01 	strhi	r8, [r3], #-2817	; 0xb01
     ebc:	0d000000 	stceq	0, cr0, [r0, #-0]
     ec0:	01003071 	tsteq	r0, r1, ror r0
     ec4:	0084038c 	addeq	r0, r4, ip, lsl #7
     ec8:	710d0000 	mrsvc	r0, (UNDEF: 13)
     ecc:	8c010031 	stchi	0, cr0, [r1], {49}	; 0x31
     ed0:	00008403 	andeq	r8, r0, r3, lsl #8
     ed4:	00620d00 	rsbeq	r0, r2, r0, lsl #26
     ed8:	84038d01 	strhi	r8, [r3], #-3329	; 0xd01
     edc:	0d000000 	stceq	0, cr0, [r0, #-0]
     ee0:	01006d62 	tsteq	r0, r2, ror #26
     ee4:	0084038d 	addeq	r0, r4, sp, lsl #7
     ee8:	770d0000 	strvc	r0, [sp, -r0]
     eec:	56010077 			; <UNDEFINED> instruction: 0x56010077
     ef0:	00036704 	andeq	r6, r3, r4, lsl #14
     ef4:	022c0e00 	eoreq	r0, ip, #0, 28
     ef8:	eb0f0000 	bl	3c0f00 <_stack+0x340f00>
     efc:	01000001 	tsteq	r0, r1
     f00:	008403c9 	addeq	r0, r4, r9, asr #7
     f04:	bd0f0000 	stclt	0, cr0, [pc, #-0]	; f0c <_init-0x70f4>
     f08:	01000001 	tsteq	r0, r1
     f0c:	008403c9 	addeq	r0, r4, r9, asr #7
     f10:	c70f0000 	strgt	r0, [pc, -r0]
     f14:	01000001 	tsteq	r0, r1
     f18:	008403c9 	addeq	r0, r4, r9, asr #7
     f1c:	c20f0000 	andgt	r0, pc, #0
     f20:	01000001 	tsteq	r0, r1
     f24:	008403c9 	addeq	r0, r4, r9, asr #7
     f28:	520f0000 	andpl	r0, pc, #0
     f2c:	01000001 	tsteq	r0, r1
     f30:	008403c9 	addeq	r0, r4, r9, asr #7
     f34:	4d0f0000 	stcmi	0, cr0, [pc, #-0]	; f3c <_init-0x70c4>
     f38:	01000001 	tsteq	r0, r1
     f3c:	008403c9 	addeq	r0, r4, r9, asr #7
     f40:	5f0d0000 	svcpl	0x000d0000
     f44:	01006d5f 	tsteq	r0, pc, asr sp
     f48:	008403c9 	addeq	r0, r4, r9, asr #7
     f4c:	0e000000 	cdpeq	0, 0, cr0, cr0, cr0, {0}
     f50:	00000286 	andeq	r0, r0, r6, lsl #5
     f54:	0001eb0f 	andeq	lr, r1, pc, lsl #22
     f58:	03ee0100 	mvneq	r0, #0, 2
     f5c:	00000084 	andeq	r0, r0, r4, lsl #1
     f60:	0001bd0f 	andeq	fp, r1, pc, lsl #26
     f64:	03ee0100 	mvneq	r0, #0, 2
     f68:	00000084 	andeq	r0, r0, r4, lsl #1
     f6c:	0001c70f 	andeq	ip, r1, pc, lsl #14
     f70:	03ee0100 	mvneq	r0, #0, 2
     f74:	00000084 	andeq	r0, r0, r4, lsl #1
     f78:	0001c20f 	andeq	ip, r1, pc, lsl #4
     f7c:	03ee0100 	mvneq	r0, #0, 2
     f80:	00000084 	andeq	r0, r0, r4, lsl #1
     f84:	0001520f 	andeq	r5, r1, pc, lsl #4
     f88:	03ee0100 	mvneq	r0, #0, 2
     f8c:	00000084 	andeq	r0, r0, r4, lsl #1
     f90:	00014d0f 	andeq	r4, r1, pc, lsl #26
     f94:	03ee0100 	mvneq	r0, #0, 2
     f98:	00000084 	andeq	r0, r0, r4, lsl #1
     f9c:	6d5f5f0d 	ldclvs	15, cr5, [pc, #-52]	; f70 <_init-0x7090>
     fa0:	03ee0100 	mvneq	r0, #0, 2
     fa4:	00000084 	andeq	r0, r0, r4, lsl #1
     fa8:	02e00e00 	rsceq	r0, r0, #0, 28
     fac:	eb0f0000 	bl	3c0fb4 <_stack+0x340fb4>
     fb0:	01000001 	tsteq	r0, r1
     fb4:	008403f3 	strdeq	r0, [r4], r3
     fb8:	bd0f0000 	stclt	0, cr0, [pc, #-0]	; fc0 <_init-0x7040>
     fbc:	01000001 	tsteq	r0, r1
     fc0:	008403f3 	strdeq	r0, [r4], r3
     fc4:	c70f0000 	strgt	r0, [pc, -r0]
     fc8:	01000001 	tsteq	r0, r1
     fcc:	008403f3 	strdeq	r0, [r4], r3
     fd0:	c20f0000 	andgt	r0, pc, #0
     fd4:	01000001 	tsteq	r0, r1
     fd8:	008403f3 	strdeq	r0, [r4], r3
     fdc:	520f0000 	andpl	r0, pc, #0
     fe0:	01000001 	tsteq	r0, r1
     fe4:	008403f3 	strdeq	r0, [r4], r3
     fe8:	4d0f0000 	stcmi	0, cr0, [pc, #-0]	; ff0 <_init-0x7010>
     fec:	01000001 	tsteq	r0, r1
     ff0:	008403f3 	strdeq	r0, [r4], r3
     ff4:	5f0d0000 	svcpl	0x000d0000
     ff8:	01006d5f 	tsteq	r0, pc, asr sp
     ffc:	008403f3 	strdeq	r0, [r4], r3
    1000:	10000000 	andne	r0, r0, r0
    1004:	00316d0d 	eorseq	r6, r1, sp, lsl #26
    1008:	84043401 	strhi	r3, [r4], #-1025	; 0x401
    100c:	0d000000 	stceq	0, cr0, [r0, #-0]
    1010:	0100306d 	tsteq	r0, sp, rrx
    1014:	00840434 	addeq	r0, r4, r4, lsr r4
    1018:	510e0000 	mrspl	r0, (UNDEF: 14)
    101c:	0f000003 	svceq	0x00000003
    1020:	000001eb 	andeq	r0, r0, fp, ror #3
    1024:	84043f01 	strhi	r3, [r4], #-3841	; 0xf01
    1028:	0f000000 	svceq	0x00000000
    102c:	000001bd 			; <UNDEFINED> instruction: 0x000001bd
    1030:	84043f01 	strhi	r3, [r4], #-3841	; 0xf01
    1034:	0f000000 	svceq	0x00000000
    1038:	000001c7 	andeq	r0, r0, r7, asr #3
    103c:	84043f01 	strhi	r3, [r4], #-3841	; 0xf01
    1040:	0f000000 	svceq	0x00000000
    1044:	000001c2 	andeq	r0, r0, r2, asr #3
    1048:	84043f01 	strhi	r3, [r4], #-3841	; 0xf01
    104c:	0f000000 	svceq	0x00000000
    1050:	00000152 	andeq	r0, r0, r2, asr r1
    1054:	84043f01 	strhi	r3, [r4], #-3841	; 0xf01
    1058:	0f000000 	svceq	0x00000000
    105c:	0000014d 	andeq	r0, r0, sp, asr #2
    1060:	84043f01 	strhi	r3, [r4], #-3841	; 0xf01
    1064:	0d000000 	stceq	0, cr0, [r0, #-0]
    1068:	006d5f5f 	rsbeq	r5, sp, pc, asr pc
    106c:	84043f01 	strhi	r3, [r4], #-3841	; 0xf01
    1070:	00000000 	andeq	r0, r0, r0
    1074:	015c0f10 	cmpeq	ip, r0, lsl pc
    1078:	40010000 	andmi	r0, r1, r0
    107c:	00009a04 	andeq	r9, r0, r4, lsl #20
    1080:	00000000 	andeq	r0, r0, r0
    1084:	009a0411 	addseq	r0, sl, r1, lsl r4
    1088:	08120000 	ldmdaeq	r2, {}	; <UNPREDICTABLE>
    108c:	13000001 	movwne	r0, #1
    1090:	0000013a 	andeq	r0, r0, sl, lsr r1
    1094:	9a049801 	bls	1270a0 <_stack+0xa70a0>
    1098:	70000000 	andvc	r0, r0, r0
    109c:	700000bc 	strhvc	r0, [r0], -ip
    10a0:	01000004 	tsteq	r0, r4
    10a4:	006e149c 	mlseq	lr, ip, r4, r1
    10a8:	9a049801 	bls	1270b4 <_stack+0xa70b4>
    10ac:	d1000000 	mrsle	r0, (UNDEF: 0)
    10b0:	1400000b 	strne	r0, [r0], #-11
    10b4:	98010064 	stmdals	r1, {r2, r5, r6}
    10b8:	00009a04 	andeq	r9, r0, r4, lsl #20
    10bc:	000c3900 	andeq	r3, ip, r0, lsl #18
    10c0:	01141500 	tsteq	r4, r0, lsl #10
    10c4:	bc740000 	ldcllt	0, cr0, [r4], #-0
    10c8:	00a80000 	adceq	r0, r8, r0
    10cc:	9a010000 	bls	410d4 <__bss_end__+0x2c11c>
    10d0:	01391604 	teqeq	r9, r4, lsl #12
    10d4:	17000000 	strne	r0, [r0, -r0]
    10d8:	0000012f 	andeq	r0, r0, pc, lsr #2
    10dc:	00000ca1 	andeq	r0, r0, r1, lsr #25
    10e0:	00012517 	andeq	r2, r1, r7, lsl r5
    10e4:	000d4900 	andeq	r4, sp, r0, lsl #18
    10e8:	00a81800 	adceq	r1, r8, r0, lsl #16
    10ec:	44190000 	ldrmi	r0, [r9], #-0
    10f0:	19000001 	stmdbne	r0, {r0}
    10f4:	0000014f 	andeq	r0, r0, pc, asr #2
    10f8:	00015a19 	andeq	r5, r1, r9, lsl sl
    10fc:	01651a00 	cmneq	r5, r0, lsl #20
    1100:	0e110000 	cdpeq	0, 1, cr0, cr1, cr0, {0}
    1104:	701a0000 	andsvc	r0, sl, r0
    1108:	c2000001 	andgt	r0, r0, #1
    110c:	1a00000e 	bne	114c <_init-0x6eb4>
    1110:	0000017b 	andeq	r0, r0, fp, ror r1
    1114:	00000f2d 	andeq	r0, r0, sp, lsr #30
    1118:	0001861a 	andeq	r8, r1, sl, lsl r6
    111c:	000fe400 	andeq	lr, pc, r0, lsl #8
    1120:	01911a00 	orrseq	r1, r1, r0, lsl #20
    1124:	10a70000 	adcne	r0, r7, r0
    1128:	9c1a0000 	ldcls	0, cr0, [sl], {-0}
    112c:	c5000001 	strgt	r0, [r0, #-1]
    1130:	1a000010 	bne	1178 <_init-0x6e88>
    1134:	000001a7 	andeq	r0, r0, r7, lsr #3
    1138:	00001114 	andeq	r1, r0, r4, lsl r1
    113c:	0001b21a 	andeq	fp, r1, sl, lsl r2
    1140:	00115100 	andseq	r5, r1, r0, lsl #2
    1144:	01bc1a00 			; <UNDEFINED> instruction: 0x01bc1a00
    1148:	11df0000 	bicsne	r0, pc, r0
    114c:	c7190000 	ldrgt	r0, [r9, -r0]
    1150:	1b000001 	blne	115c <_init-0x6ea4>
    1154:	000000d8 	ldrdeq	r0, [r0], -r8
    1158:	00000479 	andeq	r0, r0, r9, ror r4
    115c:	0001d71a 	andeq	sp, r1, sl, lsl r7
    1160:	00124a00 	andseq	r4, r2, r0, lsl #20
    1164:	01e31a00 	mvneq	r1, r0, lsl #20
    1168:	12680000 	rsbne	r0, r8, #0
    116c:	ef1a0000 	svc	0x001a0000
    1170:	8c000001 	stchi	0, cr0, [r0], {1}
    1174:	1a000012 	bne	11c4 <_init-0x6e3c>
    1178:	000001fb 	strdeq	r0, [r0], -fp
    117c:	000012cb 	andeq	r1, r0, fp, asr #5
    1180:	0002071a 	andeq	r0, r2, sl, lsl r7
    1184:	00130a00 	andseq	r0, r3, r0, lsl #20
    1188:	02131a00 	andseq	r1, r3, #0, 20
    118c:	134e0000 	movtne	r0, #57344	; 0xe000
    1190:	1f1a0000 	svcne	0x001a0000
    1194:	71000002 	tstvc	r0, r2
    1198:	00000013 	andeq	r0, r0, r3, lsl r0
    119c:	0000f81b 	andeq	pc, r0, fp, lsl r8	; <UNPREDICTABLE>
    11a0:	0004c200 	andeq	ip, r4, r0, lsl #4
    11a4:	028b1a00 	addeq	r1, fp, #0, 20
    11a8:	139a0000 	orrsne	r0, sl, #0
    11ac:	971a0000 	ldrls	r0, [sl, -r0]
    11b0:	b8000002 	stmdalt	r0, {r1}
    11b4:	1a000013 	bne	1208 <_init-0x6df8>
    11b8:	000002a3 	andeq	r0, r0, r3, lsr #5
    11bc:	000013d6 	ldrdeq	r1, [r0], -r6
    11c0:	0002af1a 	andeq	sl, r2, sl, lsl pc
    11c4:	00141500 	andseq	r1, r4, r0, lsl #10
    11c8:	02bb1a00 	adcseq	r1, fp, #0, 20
    11cc:	14540000 	ldrbne	r0, [r4], #-0
    11d0:	c71a0000 	ldrgt	r0, [sl, -r0]
    11d4:	98000002 	stmdals	r0, {r1}
    11d8:	1a000014 	bne	1230 <_init-0x6dd0>
    11dc:	000002d3 	ldrdeq	r0, [r0], -r3
    11e0:	000014bb 			; <UNDEFINED> instruction: 0x000014bb
    11e4:	01101b00 	tsteq	r0, r0, lsl #22
    11e8:	053a0000 	ldreq	r0, [sl, #-0]!
    11ec:	e11a0000 	tst	sl, r0
    11f0:	ef000002 	svc	0x00000002
    11f4:	1a000014 	bne	124c <_init-0x6db4>
    11f8:	000002ec 	andeq	r0, r0, ip, ror #5
    11fc:	00001502 	andeq	r1, r0, r2, lsl #10
    1200:	0001281b 	andeq	r2, r1, fp, lsl r8
    1204:	00052600 	andeq	r2, r5, r0, lsl #12
    1208:	02fc1a00 	rscseq	r1, ip, #0, 20
    120c:	15150000 	ldrne	r0, [r5, #-0]
    1210:	081a0000 	ldmdaeq	sl, {}	; <UNPREDICTABLE>
    1214:	42000003 	andmi	r0, r0, #3
    1218:	1a000015 	bne	1274 <_init-0x6d8c>
    121c:	00000314 	andeq	r0, r0, r4, lsl r3
    1220:	00001582 	andeq	r1, r0, r2, lsl #11
    1224:	0003201a 	andeq	r2, r3, sl, lsl r0
    1228:	0015cc00 	andseq	ip, r5, r0, lsl #24
    122c:	032c1a00 	teqeq	ip, #0, 20
    1230:	16210000 	strtne	r0, [r1], -r0
    1234:	381a0000 	ldmdacc	sl, {}	; <UNPREDICTABLE>
    1238:	55000003 	strpl	r0, [r0, #-3]
    123c:	1a000016 	bne	129c <_init-0x6d64>
    1240:	00000344 	andeq	r0, r0, r4, asr #6
    1244:	0000169e 	muleq	r0, lr, r6
    1248:	bf801c00 	svclt	0x00801c00
    124c:	00040000 	andeq	r0, r4, r0
    1250:	521a0000 	andspl	r0, sl, #0
    1254:	d2000003 	andle	r0, r0, #3
    1258:	00000016 	andeq	r0, r0, r6, lsl r0
    125c:	01581800 	cmpeq	r8, r0, lsl #16
    1260:	311a0000 	tstcc	sl, r0
    1264:	ea000002 	b	1274 <_init-0x6d8c>
    1268:	1a000016 	bne	12c8 <_init-0x6d38>
    126c:	0000023d 	andeq	r0, r0, sp, lsr r2
    1270:	00001713 	andeq	r1, r0, r3, lsl r7
    1274:	0002491a 	andeq	r4, r2, sl, lsl r9
    1278:	00173100 	andseq	r3, r7, r0, lsl #2
    127c:	02551a00 	subseq	r1, r5, #0, 20
    1280:	175a0000 	ldrbne	r0, [sl, -r0]
    1284:	611a0000 	tstvs	sl, r0
    1288:	99000002 	stmdbls	r0, {r1}
    128c:	1a000017 	bne	12f0 <_init-0x6d10>
    1290:	0000026d 	andeq	r0, r0, sp, ror #4
    1294:	000017d2 	ldrdeq	r1, [r0], -r2
    1298:	0002791a 	andeq	r7, r2, sl, lsl r9
    129c:	00180b00 	andseq	r0, r8, r0, lsl #22
    12a0:	00000000 	andeq	r0, r0, r0
    12a4:	00950000 	addseq	r0, r5, r0
    12a8:	00020000 	andeq	r0, r2, r0
    12ac:	00000438 	andeq	r0, r0, r8, lsr r4
    12b0:	09480104 	stmdbeq	r8, {r2, r8}^
    12b4:	c0e00000 	rscgt	r0, r0, r0
    12b8:	c1280000 	teqgt	r8, r0
    12bc:	2e2e0000 	cdpcs	0, 2, cr0, cr14, cr0, {0}
    12c0:	2f2e2e2f 	svccs	0x002e2e2f
    12c4:	2e2f2e2e 	cdpcs	14, 2, cr2, cr15, cr14, {1}
    12c8:	72732f2e 	rsbsvc	r2, r3, #46, 30	; 0xb8
    12cc:	63672f63 	cmnvs	r7, #396	; 0x18c
    12d0:	2e342d63 	cdpcs	13, 3, cr2, cr4, cr3, {3}
    12d4:	2f312e38 	svccs	0x00312e38
    12d8:	6762696c 	strbvs	r6, [r2, -ip, ror #18]!
    12dc:	632f6363 	teqvs	pc, #-1946157055	; 0x8c000001
    12e0:	69666e6f 	stmdbvs	r6!, {r0, r1, r2, r3, r5, r6, r9, sl, fp, sp, lr}^
    12e4:	72612f67 	rsbvc	r2, r1, #412	; 0x19c
    12e8:	696c2f6d 	stmdbvs	ip!, {r0, r2, r3, r5, r6, r8, r9, sl, fp, sp}^
    12ec:	75663162 	strbvc	r3, [r6, #-354]!	; 0x162
    12f0:	2e73636e 	cdpcs	3, 7, cr6, cr3, cr14, {3}
    12f4:	742f0053 	strtvc	r0, [pc], #-83	; 12fc <_init-0x6d04>
    12f8:	632f706d 	teqvs	pc, #109	; 0x6d
    12fc:	7372756f 	cmnvc	r2, #465567744	; 0x1bc00000
    1300:	736f5f65 	cmnvc	pc, #404	; 0x194
    1304:	7261742f 	rsbvc	r7, r1, #788529152	; 0x2f000000
    1308:	2f746567 	svccs	0x00746567
    130c:	6c697562 	cfstr64vs	mvdx7, [r9], #-392	; 0xfffffe78
    1310:	63672f64 	cmnvs	r7, #100, 30	; 0x190
    1314:	2e342d63 	cdpcs	13, 3, cr2, cr4, cr3, {3}
    1318:	2f312e38 	svccs	0x00312e38
    131c:	2d6d7261 	sfmcs	f7, 2, [sp, #-388]!	; 0xfffffe7c
    1320:	656e6f6e 	strbvs	r6, [lr, #-3950]!	; 0xf6e
    1324:	6261652d 	rsbvs	r6, r1, #188743680	; 0xb400000
    1328:	696c2f69 	stmdbvs	ip!, {r0, r3, r5, r6, r8, r9, sl, fp, sp}^
    132c:	63636762 	cmnvs	r3, #25690112	; 0x1880000
    1330:	554e4700 	strbpl	r4, [lr, #-1792]	; 0x700
    1334:	20534120 	subscs	r4, r3, r0, lsr #2
    1338:	34322e32 	ldrtcc	r2, [r2], #-3634	; 0xe32
    133c:	Address 0x000000000000133c is out of bounds.


Disassembly of section .debug_abbrev:

00000000 <.debug_abbrev>:
   0:	10001101 	andne	r1, r0, r1, lsl #2
   4:	12011106 	andne	r1, r1, #-2147483647	; 0x80000001
   8:	1b080301 	blne	200c14 <_stack+0x180c14>
   c:	13082508 	movwne	r2, #34056	; 0x8508
  10:	00000005 	andeq	r0, r0, r5
  14:	10001101 	andne	r1, r0, r1, lsl #2
  18:	12011106 	andne	r1, r1, #-2147483647	; 0x80000001
  1c:	1b080301 	blne	200c28 <_stack+0x180c28>
  20:	13082508 	movwne	r2, #34056	; 0x8508
  24:	00000005 	andeq	r0, r0, r5
  28:	10001101 	andne	r1, r0, r1, lsl #2
  2c:	12011106 	andne	r1, r1, #-2147483647	; 0x80000001
  30:	1b080301 	blne	200c3c <_stack+0x180c3c>
  34:	13082508 	movwne	r2, #34056	; 0x8508
  38:	00000005 	andeq	r0, r0, r5
  3c:	10001101 	andne	r1, r0, r1, lsl #2
  40:	12011106 	andne	r1, r1, #-2147483647	; 0x80000001
  44:	1b080301 	blne	200c50 <_stack+0x180c50>
  48:	13082508 	movwne	r2, #34056	; 0x8508
  4c:	00000005 	andeq	r0, r0, r5
  50:	10001101 	andne	r1, r0, r1, lsl #2
  54:	12011106 	andne	r1, r1, #-2147483647	; 0x80000001
  58:	1b080301 	blne	200c64 <_stack+0x180c64>
  5c:	13082508 	movwne	r2, #34056	; 0x8508
  60:	00000005 	andeq	r0, r0, r5
  64:	10001101 	andne	r1, r0, r1, lsl #2
  68:	12011106 	andne	r1, r1, #-2147483647	; 0x80000001
  6c:	1b080301 	blne	200c78 <_stack+0x180c78>
  70:	13082508 	movwne	r2, #34056	; 0x8508
  74:	00000005 	andeq	r0, r0, r5
  78:	10001101 	andne	r1, r0, r1, lsl #2
  7c:	12011106 	andne	r1, r1, #-2147483647	; 0x80000001
  80:	1b080301 	blne	200c8c <_stack+0x180c8c>
  84:	13082508 	movwne	r2, #34056	; 0x8508
  88:	00000005 	andeq	r0, r0, r5
  8c:	10001101 	andne	r1, r0, r1, lsl #2
  90:	12011106 	andne	r1, r1, #-2147483647	; 0x80000001
  94:	1b080301 	blne	200ca0 <_stack+0x180ca0>
  98:	13082508 	movwne	r2, #34056	; 0x8508
  9c:	00000005 	andeq	r0, r0, r5
  a0:	10001101 	andne	r1, r0, r1, lsl #2
  a4:	12011106 	andne	r1, r1, #-2147483647	; 0x80000001
  a8:	1b080301 	blne	200cb4 <_stack+0x180cb4>
  ac:	13082508 	movwne	r2, #34056	; 0x8508
  b0:	00000005 	andeq	r0, r0, r5
  b4:	10001101 	andne	r1, r0, r1, lsl #2
  b8:	12011106 	andne	r1, r1, #-2147483647	; 0x80000001
  bc:	1b080301 	blne	200cc8 <_stack+0x180cc8>
  c0:	13082508 	movwne	r2, #34056	; 0x8508
  c4:	00000005 	andeq	r0, r0, r5
  c8:	25011101 	strcs	r1, [r1, #-257]	; 0x101
  cc:	030b130e 	movweq	r1, #45838	; 0xb30e
  d0:	110e1b0e 	tstne	lr, lr, lsl #22
  d4:	10061201 	andne	r1, r6, r1, lsl #4
  d8:	02000017 	andeq	r0, r0, #23
  dc:	0b0b0024 	bleq	2c0174 <_stack+0x240174>
  e0:	0e030b3e 	vmoveq.16	d3[0], r0
  e4:	2e030000 	cdpcs	0, 0, cr0, cr3, cr0, {0}
  e8:	03193f01 	tsteq	r9, #1, 30
  ec:	3b0b3a0e 	blcc	2ce92c <_stack+0x24e92c>
  f0:	4919270b 	ldmdbmi	r9, {r0, r1, r3, r8, r9, sl, sp}
  f4:	12011113 	andne	r1, r1, #-1073741820	; 0xc0000004
  f8:	97184006 	ldrls	r4, [r8, -r6]
  fc:	13011942 	movwne	r1, #6466	; 0x1942
 100:	05040000 	streq	r0, [r4, #-0]
 104:	3a080300 	bcc	200d0c <_stack+0x180d0c>
 108:	490b3b0b 	stmdbmi	fp, {r0, r1, r3, r8, r9, fp, ip, sp}
 10c:	00170213 	andseq	r0, r7, r3, lsl r2
 110:	00050500 	andeq	r0, r5, r0, lsl #10
 114:	0b3a0e03 	bleq	e83928 <_stack+0xe03928>
 118:	13490b3b 	movtne	r0, #39739	; 0x9b3b
 11c:	00001802 	andeq	r1, r0, r2, lsl #16
 120:	03003406 	movweq	r3, #1030	; 0x406
 124:	3b0b3a0e 	blcc	2ce964 <_stack+0x24e964>
 128:	0213490b 	andseq	r4, r3, #180224	; 0x2c000
 12c:	07000018 	smladeq	r0, r8, r0, r0
 130:	01018289 	smlabbeq	r1, r9, r2, r8
 134:	13310111 	teqne	r1, #1073741828	; 0x40000004
 138:	8a080000 	bhi	200140 <_stack+0x180140>
 13c:	02000182 	andeq	r0, r0, #-2147483616	; 0x80000020
 140:	18429118 	stmdane	r2, {r3, r4, r8, ip, pc}^
 144:	0f090000 	svceq	0x00090000
 148:	490b0b00 	stmdbmi	fp, {r8, r9, fp}
 14c:	0a000013 	beq	1a0 <_init-0x7e60>
 150:	193f012e 	ldmdbne	pc!, {r1, r2, r3, r5, r8}	; <UNPREDICTABLE>
 154:	0b3a0e03 	bleq	e83968 <_stack+0xe03968>
 158:	19270b3b 	stmdbne	r7!, {r0, r1, r3, r4, r5, r8, r9, fp}
 15c:	193c1349 	ldmdbne	ip!, {r0, r3, r6, r8, r9, ip}
 160:	00001301 	andeq	r1, r0, r1, lsl #6
 164:	4900050b 	stmdbmi	r0, {r0, r1, r3, r8, sl}
 168:	0c000013 	stceq	0, cr0, [r0], {19}
 16c:	193f012e 	ldmdbne	pc!, {r1, r2, r3, r5, r8}	; <UNPREDICTABLE>
 170:	0b3a0e03 	bleq	e83984 <_stack+0xe03984>
 174:	19270b3b 	stmdbne	r7!, {r0, r1, r3, r4, r5, r8, r9, fp}
 178:	193c1349 	ldmdbne	ip!, {r0, r3, r6, r8, r9, ip}
 17c:	01000000 	mrseq	r0, (UNDEF: 0)
 180:	0e250111 	mcreq	1, 1, r0, cr5, cr1, {0}
 184:	0e030b13 	vmoveq.32	d3[0], r0
 188:	01110e1b 	tsteq	r1, fp, lsl lr
 18c:	17100612 			; <UNDEFINED> instruction: 0x17100612
 190:	24020000 	strcs	r0, [r2], #-0
 194:	3e0b0b00 	vmlacc.f64	d0, d11, d0
 198:	000e030b 	andeq	r0, lr, fp, lsl #6
 19c:	00240300 	eoreq	r0, r4, r0, lsl #6
 1a0:	0b3e0b0b 	bleq	f82dd4 <_stack+0xf02dd4>
 1a4:	00000803 	andeq	r0, r0, r3, lsl #16
 1a8:	03001604 	movweq	r1, #1540	; 0x604
 1ac:	3b0b3a0e 	blcc	2ce9ec <_stack+0x24e9ec>
 1b0:	0013490b 	andseq	r4, r3, fp, lsl #18
 1b4:	01130500 	tsteq	r3, r0, lsl #10
 1b8:	0b0b0e03 	bleq	2c39cc <_stack+0x2439cc>
 1bc:	053b0b3a 	ldreq	r0, [fp, #-2874]!	; 0xb3a
 1c0:	00001301 	andeq	r1, r0, r1, lsl #6
 1c4:	03000d06 	movweq	r0, #3334	; 0xd06
 1c8:	3b0b3a08 	blcc	2ce9f0 <_stack+0x24e9f0>
 1cc:	38134905 	ldmdacc	r3, {r0, r2, r8, fp, lr}
 1d0:	0700000b 	streq	r0, [r0, -fp]
 1d4:	0e03000d 	cdpeq	0, 0, cr0, cr3, cr13, {0}
 1d8:	053b0b3a 	ldreq	r0, [fp, #-2874]!	; 0xb3a
 1dc:	0b381349 	bleq	e04f08 <_stack+0xd84f08>
 1e0:	17080000 	strne	r0, [r8, -r0]
 1e4:	3a0b0b01 	bcc	2c2df0 <_stack+0x242df0>
 1e8:	01053b0b 	tsteq	r5, fp, lsl #22
 1ec:	09000013 	stmdbeq	r0, {r0, r1, r4}
 1f0:	0803000d 	stmdaeq	r3, {r0, r2, r3}
 1f4:	053b0b3a 	ldreq	r0, [fp, #-2874]!	; 0xb3a
 1f8:	00001349 	andeq	r1, r0, r9, asr #6
 1fc:	0300160a 	movweq	r1, #1546	; 0x60a
 200:	3b0b3a0e 	blcc	2cea40 <_stack+0x24ea40>
 204:	00134905 	andseq	r4, r3, r5, lsl #18
 208:	012e0b00 	teqeq	lr, r0, lsl #22
 20c:	0b3a0e03 	bleq	e83a20 <_stack+0xe03a20>
 210:	1927053b 	stmdbne	r7!, {r0, r1, r3, r4, r5, r8, sl}
 214:	0b201349 	bleq	804f40 <_stack+0x784f40>
 218:	00001301 	andeq	r1, r0, r1, lsl #6
 21c:	0300050c 	movweq	r0, #1292	; 0x50c
 220:	3b0b3a08 	blcc	2cea48 <_stack+0x24ea48>
 224:	00134905 	andseq	r4, r3, r5, lsl #18
 228:	00340d00 	eorseq	r0, r4, r0, lsl #26
 22c:	0b3a0803 	bleq	e82240 <_stack+0xe02240>
 230:	1349053b 	movtne	r0, #38203	; 0x953b
 234:	0b0e0000 	bleq	38023c <_stack+0x30023c>
 238:	00130101 	andseq	r0, r3, r1, lsl #2
 23c:	00340f00 	eorseq	r0, r4, r0, lsl #30
 240:	0b3a0e03 	bleq	e83a54 <_stack+0xe03a54>
 244:	1349053b 	movtne	r0, #38203	; 0x953b
 248:	0b100000 	bleq	400250 <_stack+0x380250>
 24c:	11000001 	tstne	r0, r1
 250:	0b0b000f 	bleq	2c0294 <_stack+0x240294>
 254:	00001349 	andeq	r1, r0, r9, asr #6
 258:	49002612 	stmdbmi	r0, {r1, r4, r9, sl, sp}
 25c:	13000013 	movwne	r0, #19
 260:	193f012e 	ldmdbne	pc!, {r1, r2, r3, r5, r8}	; <UNPREDICTABLE>
 264:	0b3a0e03 	bleq	e83a78 <_stack+0xe03a78>
 268:	1927053b 	stmdbne	r7!, {r0, r1, r3, r4, r5, r8, sl}
 26c:	01111349 	tsteq	r1, r9, asr #6
 270:	18400612 	stmdane	r0, {r1, r4, r9, sl}^
 274:	00194296 	mulseq	r9, r6, r2
 278:	00051400 	andeq	r1, r5, r0, lsl #8
 27c:	0b3a0803 	bleq	e82290 <_stack+0xe02290>
 280:	1349053b 	movtne	r0, #38203	; 0x953b
 284:	00001702 	andeq	r1, r0, r2, lsl #14
 288:	03003415 	movweq	r3, #1045	; 0x415
 28c:	3b0b3a08 	blcc	2ceab4 <_stack+0x24eab4>
 290:	02134905 	andseq	r4, r3, #81920	; 0x14000
 294:	16000017 			; <UNDEFINED> instruction: 0x16000017
 298:	1331011d 	teqne	r1, #1073741831	; 0x40000007
 29c:	17550152 			; <UNDEFINED> instruction: 0x17550152
 2a0:	05590b58 	ldrbeq	r0, [r9, #-2904]	; 0xb58
 2a4:	05170000 	ldreq	r0, [r7, #-0]
 2a8:	02133100 	andseq	r3, r3, #0, 2
 2ac:	18000017 	stmdane	r0, {r0, r1, r2, r4}
 2b0:	1755010b 	ldrbne	r0, [r5, -fp, lsl #2]
 2b4:	34190000 	ldrcc	r0, [r9], #-0
 2b8:	02133100 	andseq	r3, r3, #0, 2
 2bc:	1a000017 	bne	320 <_init-0x7ce0>
 2c0:	13310034 	teqne	r1, #52	; 0x34
 2c4:	0b1b0000 	bleq	6c02cc <_stack+0x6402cc>
 2c8:	12011101 	andne	r1, r1, #1073741824	; 0x40000000
 2cc:	00130106 	andseq	r0, r3, r6, lsl #2
 2d0:	010b1c00 	tsteq	fp, r0, lsl #24
 2d4:	13011755 	movwne	r1, #5973	; 0x1755
 2d8:	0b1d0000 	bleq	7402e0 <_stack+0x6c02e0>
 2dc:	12011101 	andne	r1, r1, #1073741824	; 0x40000000
 2e0:	00000006 	andeq	r0, r0, r6
 2e4:	25011101 	strcs	r1, [r1, #-257]	; 0x101
 2e8:	030b130e 	movweq	r1, #45838	; 0xb30e
 2ec:	110e1b0e 	tstne	lr, lr, lsl #22
 2f0:	10061201 	andne	r1, r6, r1, lsl #4
 2f4:	02000017 	andeq	r0, r0, #23
 2f8:	0b0b0024 	bleq	2c0390 <_stack+0x240390>
 2fc:	0e030b3e 	vmoveq.16	d3[0], r0
 300:	24030000 	strcs	r0, [r3], #-0
 304:	3e0b0b00 	vmlacc.f64	d0, d11, d0
 308:	0008030b 	andeq	r0, r8, fp, lsl #6
 30c:	00160400 	andseq	r0, r6, r0, lsl #8
 310:	0b3a0e03 	bleq	e83b24 <_stack+0xe03b24>
 314:	13490b3b 	movtne	r0, #39739	; 0x9b3b
 318:	13050000 	movwne	r0, #20480	; 0x5000
 31c:	0b0e0301 	bleq	380f28 <_stack+0x300f28>
 320:	3b0b3a0b 	blcc	2ceb54 <_stack+0x24eb54>
 324:	00130105 	andseq	r0, r3, r5, lsl #2
 328:	000d0600 	andeq	r0, sp, r0, lsl #12
 32c:	0b3a0803 	bleq	e82340 <_stack+0xe02340>
 330:	1349053b 	movtne	r0, #38203	; 0x953b
 334:	00000b38 	andeq	r0, r0, r8, lsr fp
 338:	03000d07 	movweq	r0, #3335	; 0xd07
 33c:	3b0b3a0e 	blcc	2ceb7c <_stack+0x24eb7c>
 340:	38134905 	ldmdacc	r3, {r0, r2, r8, fp, lr}
 344:	0800000b 	stmdaeq	r0, {r0, r1, r3}
 348:	0b0b0117 	bleq	2c07ac <_stack+0x2407ac>
 34c:	053b0b3a 	ldreq	r0, [fp, #-2874]!	; 0xb3a
 350:	00001301 	andeq	r1, r0, r1, lsl #6
 354:	03000d09 	movweq	r0, #3337	; 0xd09
 358:	3b0b3a08 	blcc	2ceb80 <_stack+0x24eb80>
 35c:	00134905 	andseq	r4, r3, r5, lsl #18
 360:	00160a00 	andseq	r0, r6, r0, lsl #20
 364:	0b3a0e03 	bleq	e83b78 <_stack+0xe03b78>
 368:	1349053b 	movtne	r0, #38203	; 0x953b
 36c:	2e0b0000 	cdpcs	0, 0, cr0, cr11, cr0, {0}
 370:	3a0e0301 	bcc	380f7c <_stack+0x300f7c>
 374:	27053b0b 	strcs	r3, [r5, -fp, lsl #22]
 378:	20134919 	andscs	r4, r3, r9, lsl r9
 37c:	0013010b 	andseq	r0, r3, fp, lsl #2
 380:	00050c00 	andeq	r0, r5, r0, lsl #24
 384:	0b3a0803 	bleq	e82398 <_stack+0xe02398>
 388:	1349053b 	movtne	r0, #38203	; 0x953b
 38c:	340d0000 	strcc	r0, [sp], #-0
 390:	3a080300 	bcc	200f98 <_stack+0x180f98>
 394:	49053b0b 	stmdbmi	r5, {r0, r1, r3, r8, r9, fp, ip, sp}
 398:	0e000013 	mcreq	0, 0, r0, cr0, cr3, {0}
 39c:	1301010b 	movwne	r0, #4363	; 0x110b
 3a0:	340f0000 	strcc	r0, [pc], #-0	; 3a8 <_init-0x7c58>
 3a4:	3a0e0300 	bcc	380fac <_stack+0x300fac>
 3a8:	49053b0b 	stmdbmi	r5, {r0, r1, r3, r8, r9, fp, ip, sp}
 3ac:	10000013 	andne	r0, r0, r3, lsl r0
 3b0:	0000010b 	andeq	r0, r0, fp, lsl #2
 3b4:	0b000f11 	bleq	4000 <_init-0x4000>
 3b8:	0013490b 	andseq	r4, r3, fp, lsl #18
 3bc:	00261200 	eoreq	r1, r6, r0, lsl #4
 3c0:	00001349 	andeq	r1, r0, r9, asr #6
 3c4:	3f012e13 	svccc	0x00012e13
 3c8:	3a0e0319 	bcc	381034 <_stack+0x301034>
 3cc:	27053b0b 	strcs	r3, [r5, -fp, lsl #22]
 3d0:	11134919 	tstne	r3, r9, lsl r9
 3d4:	40061201 	andmi	r1, r6, r1, lsl #4
 3d8:	19429618 	stmdbne	r2, {r3, r4, r9, sl, ip, pc}^
 3dc:	05140000 	ldreq	r0, [r4, #-0]
 3e0:	3a080300 	bcc	200fe8 <_stack+0x180fe8>
 3e4:	49053b0b 	stmdbmi	r5, {r0, r1, r3, r8, r9, fp, ip, sp}
 3e8:	00170213 	andseq	r0, r7, r3, lsl r2
 3ec:	011d1500 	tsteq	sp, r0, lsl #10
 3f0:	01521331 	cmpeq	r2, r1, lsr r3
 3f4:	0b581755 	bleq	1606150 <_stack+0x1586150>
 3f8:	00000559 	andeq	r0, r0, r9, asr r5
 3fc:	31000516 	tstcc	r0, r6, lsl r5
 400:	000b1c13 	andeq	r1, fp, r3, lsl ip
 404:	00051700 	andeq	r1, r5, r0, lsl #14
 408:	17021331 	smladxne	r2, r1, r3, r1
 40c:	0b180000 	bleq	600414 <_stack+0x580414>
 410:	00175501 	andseq	r5, r7, r1, lsl #10
 414:	00341900 	eorseq	r1, r4, r0, lsl #18
 418:	00001331 	andeq	r1, r0, r1, lsr r3
 41c:	3100341a 	tstcc	r0, sl, lsl r4
 420:	00170213 	andseq	r0, r7, r3, lsl r2
 424:	010b1b00 	tsteq	fp, r0, lsl #22
 428:	13011755 	movwne	r1, #5973	; 0x1755
 42c:	0b1c0000 	bleq	700434 <_stack+0x680434>
 430:	12011101 	andne	r1, r1, #1073741824	; 0x40000000
 434:	00000006 	andeq	r0, r0, r6
 438:	10001101 	andne	r1, r0, r1, lsl #2
 43c:	12011106 	andne	r1, r1, #-2147483647	; 0x80000001
 440:	1b080301 	blne	20104c <_stack+0x18104c>
 444:	13082508 	movwne	r2, #34056	; 0x8508
 448:	00000005 	andeq	r0, r0, r5

Disassembly of section .debug_line:

00000000 <.debug_line>:
   0:	0000008d 	andeq	r0, r0, sp, lsl #1
   4:	004e0002 	subeq	r0, lr, r2
   8:	01020000 	mrseq	r0, (UNDEF: 2)
   c:	000d0efb 	strdeq	r0, [sp], -fp
  10:	01010101 	tsteq	r1, r1, lsl #2
  14:	01000000 	mrseq	r0, (UNDEF: 0)
  18:	2e010000 	cdpcs	0, 0, cr0, cr1, cr0, {0}
  1c:	2e2e2f2e 	cdpcs	15, 2, cr2, cr14, cr14, {1}
  20:	2f2e2e2f 	svccs	0x002e2e2f
  24:	732f2e2e 	teqvc	pc, #736	; 0x2e0
  28:	672f6372 			; <UNDEFINED> instruction: 0x672f6372
  2c:	342d6363 	strtcc	r6, [sp], #-867	; 0x363
  30:	312e382e 	teqcc	lr, lr, lsr #16
  34:	62696c2f 	rsbvs	r6, r9, #12032	; 0x2f00
  38:	2f636367 	svccs	0x00636367
  3c:	666e6f63 	strbtvs	r6, [lr], -r3, ror #30
  40:	612f6769 	teqvs	pc, r9, ror #14
  44:	00006d72 	andeq	r6, r0, r2, ror sp
  48:	3162696c 	cmncc	r2, ip, ror #18
  4c:	636e7566 	cmnvs	lr, #427819008	; 0x19800000
  50:	00532e73 	subseq	r2, r3, r3, ror lr
  54:	00000001 	andeq	r0, r0, r1
  58:	b8020500 	stmdalt	r2, {r8, sl}
  5c:	030000a9 	movweq	r0, #169	; 0xa9
  60:	300107cf 	andcc	r0, r1, pc, asr #15
  64:	2f2f2f2f 	svccs	0x002f2f2f
  68:	7cfe032f 	ldclvc	3, cr0, [lr], #188	; 0xbc
  6c:	0386032e 	orreq	r0, r6, #-1207959552	; 0xb8000000
  70:	2f013e02 	svccs	0x00013e02
  74:	032f2f31 	teqeq	pc, #49, 30	; 0xc4
  78:	032e7db7 	teqeq	lr, #11712	; 0x2dc0
  7c:	900802cd 	andls	r0, r8, sp, asr #5
  80:	1603322f 	strne	r3, [r3], -pc, lsr #4
  84:	2f2f2f66 	svccs	0x002f2f66
  88:	2f2f2f2f 	svccs	0x002f2f2f
  8c:	01000202 	tsteq	r0, r2, lsl #4
  90:	00009901 	andeq	r9, r0, r1, lsl #18
  94:	4e000200 	cdpmi	2, 0, cr0, cr0, cr0, {0}
  98:	02000000 	andeq	r0, r0, #0
  9c:	0d0efb01 	vstreq	d15, [lr, #-4]
  a0:	01010100 	mrseq	r0, (UNDEF: 17)
  a4:	00000001 	andeq	r0, r0, r1
  a8:	01000001 	tsteq	r0, r1
  ac:	2e2f2e2e 	cdpcs	14, 2, cr2, cr15, cr14, {1}
  b0:	2e2e2f2e 	cdpcs	15, 2, cr2, cr14, cr14, {1}
  b4:	2f2e2e2f 	svccs	0x002e2e2f
  b8:	2f637273 	svccs	0x00637273
  bc:	2d636367 	stclcs	3, cr6, [r3, #-412]!	; 0xfffffe64
  c0:	2e382e34 	mrccs	14, 1, r2, cr8, cr4, {1}
  c4:	696c2f31 	stmdbvs	ip!, {r0, r4, r5, r8, r9, sl, fp, sp}^
  c8:	63636762 	cmnvs	r3, #25690112	; 0x1880000
  cc:	6e6f632f 	cdpvs	3, 6, cr6, cr15, cr15, {1}
  d0:	2f676966 	svccs	0x00676966
  d4:	006d7261 	rsbeq	r7, sp, r1, ror #4
  d8:	62696c00 	rsbvs	r6, r9, #0, 24
  dc:	6e756631 	mrcvs	6, 3, r6, cr5, cr1, {1}
  e0:	532e7363 	teqpl	lr, #-1946157055	; 0x8c000001
  e4:	00000100 	andeq	r0, r0, r0, lsl #2
  e8:	02050000 	andeq	r0, r5, #0
  ec:	0000aacc 	andeq	sl, r0, ip, asr #21
  f0:	0108f603 	tsteq	r8, r3, lsl #12
  f4:	2f30302f 	svccs	0x0030302f
  f8:	2f302f2f 	svccs	0x00302f2f
  fc:	032f2f2f 	teqeq	pc, #47, 30	; 0xbc
 100:	032e7bd0 	teqeq	lr, #208, 22	; 0x34000
 104:	3e0204b4 	mcrcc	4, 0, r0, cr2, cr4, {5}
 108:	302f3001 	eorcc	r3, pc, r1
 10c:	30312f30 	eorscc	r2, r1, r0, lsr pc
 110:	80032f2f 	andhi	r2, r3, pc, lsr #30
 114:	84032e7c 	strhi	r2, [r3], #-3708	; 0xe7c
 118:	2f900804 	svccs	0x00900804
 11c:	03322f30 	teqeq	r2, #48, 30	; 0xc0
 120:	2f2f8216 	svccs	0x002f8216
 124:	2f2f2f2f 	svccs	0x002f2f2f
 128:	0002022f 	andeq	r0, r2, pc, lsr #4
 12c:	00640101 	rsbeq	r0, r4, r1, lsl #2
 130:	00020000 	andeq	r0, r2, r0
 134:	0000004e 	andeq	r0, r0, lr, asr #32
 138:	0efb0102 	cdpeq	1, 15, cr0, cr11, cr2, {0}
 13c:	0101000d 	tsteq	r1, sp
 140:	00000101 	andeq	r0, r0, r1, lsl #2
 144:	00000100 	andeq	r0, r0, r0, lsl #2
 148:	2f2e2e01 	svccs	0x002e2e01
 14c:	2e2f2e2e 	cdpcs	14, 2, cr2, cr15, cr14, {1}
 150:	2e2e2f2e 	cdpcs	15, 2, cr2, cr14, cr14, {1}
 154:	6372732f 	cmnvs	r2, #-1140850688	; 0xbc000000
 158:	6363672f 	cmnvs	r3, #12320768	; 0xbc0000
 15c:	382e342d 	stmdacc	lr!, {r0, r2, r3, r5, sl, ip, sp}
 160:	6c2f312e 	stfvss	f3, [pc], #-184	; b0 <_init-0x7f50>
 164:	63676269 	cmnvs	r7, #-1879048186	; 0x90000006
 168:	6f632f63 	svcvs	0x00632f63
 16c:	6769666e 	strbvs	r6, [r9, -lr, ror #12]!
 170:	6d72612f 	ldfvse	f6, [r2, #-188]!	; 0xffffff44
 174:	696c0000 	stmdbvs	ip!, {}^	; <UNPREDICTABLE>
 178:	75663162 	strbvc	r3, [r6, #-354]!	; 0x162
 17c:	2e73636e 	cdpcs	3, 7, cr6, cr3, cr14, {3}
 180:	00010053 	andeq	r0, r1, r3, asr r0
 184:	05000000 	streq	r0, [r0, #-0]
 188:	00ac1402 	adceq	r1, ip, r2, lsl #8
 18c:	0a960300 	beq	fe580d94 <_stack+0xfe500d94>
 190:	00020201 	andeq	r0, r2, r1, lsl #4
 194:	006a0101 	rsbeq	r0, sl, r1, lsl #2
 198:	00020000 	andeq	r0, r2, r0
 19c:	0000004e 	andeq	r0, r0, lr, asr #32
 1a0:	0efb0102 	cdpeq	1, 15, cr0, cr11, cr2, {0}
 1a4:	0101000d 	tsteq	r1, sp
 1a8:	00000101 	andeq	r0, r0, r1, lsl #2
 1ac:	00000100 	andeq	r0, r0, r0, lsl #2
 1b0:	2f2e2e01 	svccs	0x002e2e01
 1b4:	2e2f2e2e 	cdpcs	14, 2, cr2, cr15, cr14, {1}
 1b8:	2e2e2f2e 	cdpcs	15, 2, cr2, cr14, cr14, {1}
 1bc:	6372732f 	cmnvs	r2, #-1140850688	; 0xbc000000
 1c0:	6363672f 	cmnvs	r3, #12320768	; 0xbc0000
 1c4:	382e342d 	stmdacc	lr!, {r0, r2, r3, r5, sl, ip, sp}
 1c8:	6c2f312e 	stfvss	f3, [pc], #-184	; 118 <_init-0x7ee8>
 1cc:	63676269 	cmnvs	r7, #-1879048186	; 0x90000006
 1d0:	6f632f63 	svcvs	0x00632f63
 1d4:	6769666e 	strbvs	r6, [r9, -lr, ror #12]!
 1d8:	6d72612f 	ldfvse	f6, [r2, #-188]!	; 0xffffff44
 1dc:	696c0000 	stmdbvs	ip!, {}^	; <UNPREDICTABLE>
 1e0:	75663162 	strbvc	r3, [r6, #-354]!	; 0x162
 1e4:	2e73636e 	cdpcs	3, 7, cr6, cr3, cr14, {3}
 1e8:	00010053 	andeq	r0, r1, r3, asr r0
 1ec:	05000000 	streq	r0, [r0, #-0]
 1f0:	00ac1802 	adceq	r1, ip, r2, lsl #16
 1f4:	0bbe0300 	bleq	fef80dfc <_stack+0xfef00dfc>
 1f8:	2f2f2f01 	svccs	0x002f2f01
 1fc:	022f2f2f 	eoreq	r2, pc, #47, 30	; 0xbc
 200:	01010002 	tsteq	r1, r2
 204:	00000167 	andeq	r0, r0, r7, ror #2
 208:	004f0002 	subeq	r0, pc, r2
 20c:	01020000 	mrseq	r0, (UNDEF: 2)
 210:	000d0efb 	strdeq	r0, [sp], -fp
 214:	01010101 	tsteq	r1, r1, lsl #2
 218:	01000000 	mrseq	r0, (UNDEF: 0)
 21c:	2e010000 	cdpcs	0, 0, cr0, cr1, cr0, {0}
 220:	2e2e2f2e 	cdpcs	15, 2, cr2, cr14, cr14, {1}
 224:	2f2e2e2f 	svccs	0x002e2e2f
 228:	732f2e2e 	teqvc	pc, #736	; 0x2e0
 22c:	672f6372 			; <UNDEFINED> instruction: 0x672f6372
 230:	342d6363 	strtcc	r6, [sp], #-867	; 0x363
 234:	312e382e 	teqcc	lr, lr, lsr #16
 238:	62696c2f 	rsbvs	r6, r9, #12032	; 0x2f00
 23c:	2f636367 	svccs	0x00636367
 240:	666e6f63 	strbtvs	r6, [lr], -r3, ror #30
 244:	612f6769 	teqvs	pc, r9, ror #14
 248:	00006d72 	andeq	r6, r0, r2, ror sp
 24c:	65656569 	strbvs	r6, [r5, #-1385]!	; 0x569
 250:	2d343537 	cfldr32cs	mvfx3, [r4, #-220]!	; 0xffffff24
 254:	532e6664 	teqpl	lr, #100, 12	; 0x6400000
 258:	00000100 	andeq	r0, r0, r0, lsl #2
 25c:	02050000 	andeq	r0, r5, #0
 260:	0000ac34 	andeq	sl, r0, r4, lsr ip
 264:	0100c503 	tsteq	r0, r3, lsl #10
 268:	3136332f 	teqcc	r6, pc, lsr #6
 26c:	30302f2f 	eorscc	r2, r0, pc, lsr #30
 270:	2f2f2f2f 	svccs	0x002f2f2f
 274:	2f302f32 	svccs	0x00302f32
 278:	2f2f2f2f 	svccs	0x002f2f2f
 27c:	332f2f2f 	teqcc	pc, #47, 30	; 0xbc
 280:	2f2f4d30 	svccs	0x002f4d30
 284:	2f332f2f 	svccs	0x00332f2f
 288:	2f2f2f31 	svccs	0x002f2f31
 28c:	2f332f33 	svccs	0x00332f33
 290:	2f2f3132 	svccs	0x002f3132
 294:	2f2f2f2f 	svccs	0x002f2f2f
 298:	2f2f2f2f 	svccs	0x002f2f2f
 29c:	2f2f302f 	svccs	0x002f302f
 2a0:	2f352f32 	svccs	0x00352f32
 2a4:	2f2f332f 	svccs	0x002f332f
 2a8:	2f2f312f 	svccs	0x002f312f
 2ac:	2f2f312f 	svccs	0x002f312f
 2b0:	2f2f3035 	svccs	0x002f3035
 2b4:	2f4e2f2f 	svccs	0x004e2f2f
 2b8:	2f2f2f2f 	svccs	0x002f2f2f
 2bc:	2f2f2f35 	svccs	0x002f2f35
 2c0:	2f2f2f2f 	svccs	0x002f2f2f
 2c4:	2f2f2f2f 	svccs	0x002f2f2f
 2c8:	2f2f2f2f 	svccs	0x002f2f2f
 2cc:	032f2f2f 	teqeq	pc, #47, 30	; 0xbc
 2d0:	2f2f2e10 	svccs	0x002f2e10
 2d4:	2f2f322f 	svccs	0x002f322f
 2d8:	30322f2f 	eorscc	r2, r2, pc, lsr #30
 2dc:	322f352f 	eorcc	r3, pc, #197132288	; 0xbc00000
 2e0:	4e2f2f30 	mcrmi	15, 1, r2, cr15, cr0, {1}
 2e4:	2f2f2f2f 	svccs	0x002f2f2f
 2e8:	2f2f2f31 	svccs	0x002f2f31
 2ec:	2f4e2f2f 	svccs	0x004e2f2f
 2f0:	2f2f2f2f 	svccs	0x002f2f2f
 2f4:	4f2f2f4e 	svcmi	0x002f2f4e
 2f8:	2f2f302f 	svccs	0x002f302f
 2fc:	2f30322f 	svccs	0x0030322f
 300:	312f3030 	teqcc	pc, r0, lsr r0	; <UNPREDICTABLE>
 304:	4c2f2f30 	stcmi	15, cr2, [pc], #-192	; 24c <_init-0x7db4>
 308:	4d2f2f32 	stcmi	15, cr2, [pc, #-200]!	; 248 <_init-0x7db8>
 30c:	302f2f2f 	eorcc	r2, pc, pc, lsr #30
 310:	2f304b2f 	svccs	0x00304b2f
 314:	2f2f324b 	svccs	0x002f324b
 318:	4a09032f 	bmi	240fdc <_stack+0x1c0fdc>
 31c:	302f2f30 	eorcc	r2, pc, r0, lsr pc	; <UNPREDICTABLE>
 320:	2f302f2f 	svccs	0x00302f2f
 324:	0a032f2f 	beq	cbfe8 <_stack+0x4bfe8>
 328:	2f2f304a 	svccs	0x002f304a
 32c:	322f2f2f 	eorcc	r2, pc, #47, 30	; 0xbc
 330:	2f30362f 	svccs	0x0030362f
 334:	2f2f2f2f 	svccs	0x002f2f2f
 338:	362f3230 			; <UNDEFINED> instruction: 0x362f3230
 33c:	302f2f2f 	eorcc	r2, pc, pc, lsr #30
 340:	302f2f2f 	eorcc	r2, pc, pc, lsr #30
 344:	2f312f30 	svccs	0x00312f30
 348:	362f2f2f 	strtcc	r2, [pc], -pc, lsr #30
 34c:	2f303030 	svccs	0x00303030
 350:	30303033 	eorscc	r3, r0, r3, lsr r0
 354:	312f332f 	teqcc	pc, pc, lsr #6
 358:	2e09032f 	cdpcs	3, 0, cr0, cr9, cr15, {1}
 35c:	302f312f 	eorcc	r3, pc, pc, lsr #2
 360:	302f302f 	eorcc	r3, pc, pc, lsr #32
 364:	2f2f2f2f 	svccs	0x002f2f2f
 368:	02022f2f 	andeq	r2, r2, #47, 30	; 0xbc
 36c:	83010100 	movwhi	r0, #4352	; 0x1100
 370:	02000001 	andeq	r0, r0, #1
 374:	00004f00 	andeq	r4, r0, r0, lsl #30
 378:	fb010200 	blx	40b82 <__bss_end__+0x2bbca>
 37c:	01000d0e 	tsteq	r0, lr, lsl #26
 380:	00010101 	andeq	r0, r1, r1, lsl #2
 384:	00010000 	andeq	r0, r1, r0
 388:	2e2e0100 	sufcse	f0, f6, f0
 38c:	2f2e2e2f 	svccs	0x002e2e2f
 390:	2e2f2e2e 	cdpcs	14, 2, cr2, cr15, cr14, {1}
 394:	72732f2e 	rsbsvc	r2, r3, #46, 30	; 0xb8
 398:	63672f63 	cmnvs	r7, #396	; 0x18c
 39c:	2e342d63 	cdpcs	13, 3, cr2, cr4, cr3, {3}
 3a0:	2f312e38 	svccs	0x00312e38
 3a4:	6762696c 	strbvs	r6, [r2, -ip, ror #18]!
 3a8:	632f6363 	teqvs	pc, #-1946157055	; 0x8c000001
 3ac:	69666e6f 	stmdbvs	r6!, {r0, r1, r2, r3, r5, r6, r9, sl, fp, sp, lr}^
 3b0:	72612f67 	rsbvc	r2, r1, #412	; 0x19c
 3b4:	6900006d 	stmdbvs	r0, {r0, r2, r3, r5, r6}
 3b8:	37656565 	strbcc	r6, [r5, -r5, ror #10]!
 3bc:	642d3435 	strtvs	r3, [sp], #-1077	; 0x435
 3c0:	00532e66 	subseq	r2, r3, r6, ror #28
 3c4:	00000001 	andeq	r0, r0, r1
 3c8:	50020500 	andpl	r0, r2, r0, lsl #10
 3cc:	030000b0 	movweq	r0, #176	; 0xb0
 3d0:	310104b3 			; <UNDEFINED> instruction: 0x310104b3
 3d4:	2f302f2f 	svccs	0x00302f2f
 3d8:	31312f2f 	teqcc	r1, pc, lsr #30
 3dc:	302f2f32 	eorcc	r2, pc, r2, lsr pc	; <UNPREDICTABLE>
 3e0:	032f2f2f 	teqeq	pc, #47, 30	; 0xbc
 3e4:	2f2e00c1 	svccs	0x002e00c1
 3e8:	2f2f2f2f 	svccs	0x002f2f2f
 3ec:	3130342f 	teqcc	r0, pc, lsr #8
 3f0:	2f2f2f2f 	svccs	0x002f2f2f
 3f4:	2f312f2f 	svccs	0x00312f2f
 3f8:	312f2f2f 	teqcc	pc, pc, lsr #30
 3fc:	30312f30 	eorscc	r2, r1, r0, lsr pc
 400:	4e2f2f2f 	cdpmi	15, 2, cr2, cr15, cr15, {1}
 404:	2f2f2f2f 	svccs	0x002f2f2f
 408:	4d2f2f30 	stcmi	15, cr2, [pc, #-192]!	; 350 <_init-0x7cb0>
 40c:	31322f2f 	teqcc	r2, pc, lsr #30
 410:	4d2f2f30 	stcmi	15, cr2, [pc, #-192]!	; 358 <_init-0x7ca8>
 414:	2f2f2f2f 	svccs	0x002f2f2f
 418:	2f2f2f31 	svccs	0x002f2f31
 41c:	2f2f2f2f 	svccs	0x002f2f2f
 420:	2f302f2f 	svccs	0x00302f2f
 424:	2f2f2f4e 	svccs	0x002f2f4e
 428:	2f2f2f2f 	svccs	0x002f2f2f
 42c:	4e2f302f 	cdpmi	0, 2, cr3, cr15, cr15, {1}
 430:	2f2f2f2f 	svccs	0x002f2f2f
 434:	2f2f2f2f 	svccs	0x002f2f2f
 438:	2f4f2f30 	svccs	0x004f2f30
 43c:	2f2f2f2f 	svccs	0x002f2f2f
 440:	2f2f2f30 	svccs	0x002f2f30
 444:	2f2f2f30 	svccs	0x002f2f30
 448:	2f2f302f 	svccs	0x002f302f
 44c:	302f322f 	eorcc	r3, pc, pc, lsr #4
 450:	2f30312f 	svccs	0x0030312f
 454:	2f2f2f32 	svccs	0x002f2f32
 458:	2f2f304d 	svccs	0x002f304d
 45c:	2f2f2f2f 	svccs	0x002f2f2f
 460:	2f2f2f2f 	svccs	0x002f2f2f
 464:	322f2f30 	eorcc	r2, pc, #48, 30	; 0xc0
 468:	2f2f2f32 	svccs	0x002f2f32
 46c:	2f2f4e2f 	svccs	0x002f4e2f
 470:	2f2f3152 	svccs	0x002f3152
 474:	2f2f2f30 	svccs	0x002f2f30
 478:	2f323131 	svccs	0x00323131
 47c:	2f2f2f2f 	svccs	0x002f2f2f
 480:	2f2f2f2f 	svccs	0x002f2f2f
 484:	3032312f 	eorscc	r3, r2, pc, lsr #2
 488:	2f2f2f2f 	svccs	0x002f2f2f
 48c:	2f2f312f 	svccs	0x002f312f
 490:	312f2f2f 	teqcc	pc, pc, lsr #30
 494:	2f2f302f 	svccs	0x002f302f
 498:	2f2f2f2f 	svccs	0x002f2f2f
 49c:	2f2f2f30 	svccs	0x002f2f30
 4a0:	302f2f2f 	eorcc	r2, pc, pc, lsr #30
 4a4:	2f2f2f2f 	svccs	0x002f2f2f
 4a8:	2f302f2f 	svccs	0x00302f2f
 4ac:	2f2f302f 	svccs	0x002f302f
 4b0:	2f2f2f2f 	svccs	0x002f2f2f
 4b4:	322f2f2f 	eorcc	r2, pc, #47, 30	; 0xbc
 4b8:	2f2f2f2f 	svccs	0x002f2f2f
 4bc:	2f30312f 	svccs	0x0030312f
 4c0:	312f3031 	teqcc	pc, r1, lsr r0	; <UNPREDICTABLE>
 4c4:	2f2f2f30 	svccs	0x002f2f30
 4c8:	2f2f4e2f 	svccs	0x002f4e2f
 4cc:	4c2f2f30 	stcmi	15, cr2, [pc], #-192	; 414 <_init-0x7bec>
 4d0:	332f2f2f 	teqcc	pc, #47, 30	; 0xbc
 4d4:	302f322f 	eorcc	r3, pc, pc, lsr #4
 4d8:	2f2f2f2f 	svccs	0x002f2f2f
 4dc:	2f2f2f2f 	svccs	0x002f2f2f
 4e0:	2f2f2f2f 	svccs	0x002f2f2f
 4e4:	2f2f2f2f 	svccs	0x002f2f2f
 4e8:	2f30302f 	svccs	0x0030302f
 4ec:	2f2f2f30 	svccs	0x002f2f30
 4f0:	0002022f 	andeq	r0, r2, pc, lsr #4
 4f4:	00b10101 	adcseq	r0, r1, r1, lsl #2
 4f8:	00020000 	andeq	r0, r2, r0
 4fc:	0000004f 	andeq	r0, r0, pc, asr #32
 500:	0efb0102 	cdpeq	1, 15, cr0, cr11, cr2, {0}
 504:	0101000d 	tsteq	r1, sp
 508:	00000101 	andeq	r0, r0, r1, lsl #2
 50c:	00000100 	andeq	r0, r0, r0, lsl #2
 510:	2f2e2e01 	svccs	0x002e2e01
 514:	2e2f2e2e 	cdpcs	14, 2, cr2, cr15, cr14, {1}
 518:	2e2e2f2e 	cdpcs	15, 2, cr2, cr14, cr14, {1}
 51c:	6372732f 	cmnvs	r2, #-1140850688	; 0xbc000000
 520:	6363672f 	cmnvs	r3, #12320768	; 0xbc0000
 524:	382e342d 	stmdacc	lr!, {r0, r2, r3, r5, sl, ip, sp}
 528:	6c2f312e 	stfvss	f3, [pc], #-184	; 478 <_init-0x7b88>
 52c:	63676269 	cmnvs	r7, #-1879048186	; 0x90000006
 530:	6f632f63 	svcvs	0x00632f63
 534:	6769666e 	strbvs	r6, [r9, -lr, ror #12]!
 538:	6d72612f 	ldfvse	f6, [r2, #-188]!	; 0xffffff44
 53c:	65690000 	strbvs	r0, [r9, #-0]!
 540:	35376565 	ldrcc	r6, [r7, #-1381]!	; 0x565
 544:	66642d34 			; <UNDEFINED> instruction: 0x66642d34
 548:	0100532e 	tsteq	r0, lr, lsr #6
 54c:	00000000 	andeq	r0, r0, r0
 550:	b4ec0205 	strbtlt	r0, [ip], #517	; 0x205
 554:	a9030000 	stmdbge	r3, {}	; <UNPREDICTABLE>
 558:	322f0108 	eorcc	r0, pc, #8, 2
 55c:	3130332f 	teqcc	r0, pc, lsr #6
 560:	2f302f2f 	svccs	0x00302f2f
 564:	2f302f32 	svccs	0x00302f32
 568:	312f2f30 	teqcc	pc, r0, lsr pc	; <UNPREDICTABLE>
 56c:	32303231 	eorscc	r3, r0, #268435459	; 0x10000003
 570:	312f2f2f 	teqcc	pc, pc, lsr #30
 574:	2f2f2f2f 	svccs	0x002f2f2f
 578:	2f2f2f2f 	svccs	0x002f2f2f
 57c:	032f2f2f 	teqeq	pc, #47, 30	; 0xbc
 580:	2f2f2e0c 	svccs	0x002f2e0c
 584:	2f2f2f2f 	svccs	0x002f2f2f
 588:	32302f35 	eorscc	r2, r0, #53, 30	; 0xd4
 58c:	302f522f 	eorcc	r5, pc, pc, lsr #4
 590:	2f502f2f 	svccs	0x00502f2f
 594:	502f2f30 	eorpl	r2, pc, r0, lsr pc	; <UNPREDICTABLE>
 598:	2f2f302f 	svccs	0x002f302f
 59c:	2f302f50 	svccs	0x00302f50
 5a0:	302f502f 	eorcc	r5, pc, pc, lsr #32
 5a4:	0402302f 	streq	r3, [r2], #-47	; 0x2f
 5a8:	7b010100 	blvc	409b0 <__bss_end__+0x2b9f8>
 5ac:	02000000 	andeq	r0, r0, #0
 5b0:	00004f00 	andeq	r4, r0, r0, lsl #30
 5b4:	fb010200 	blx	40dbe <__bss_end__+0x2be06>
 5b8:	01000d0e 	tsteq	r0, lr, lsl #26
 5bc:	00010101 	andeq	r0, r1, r1, lsl #2
 5c0:	00010000 	andeq	r0, r1, r0
 5c4:	2e2e0100 	sufcse	f0, f6, f0
 5c8:	2f2e2e2f 	svccs	0x002e2e2f
 5cc:	2e2f2e2e 	cdpcs	14, 2, cr2, cr15, cr14, {1}
 5d0:	72732f2e 	rsbsvc	r2, r3, #46, 30	; 0xb8
 5d4:	63672f63 	cmnvs	r7, #396	; 0x18c
 5d8:	2e342d63 	cdpcs	13, 3, cr2, cr4, cr3, {3}
 5dc:	2f312e38 	svccs	0x00312e38
 5e0:	6762696c 	strbvs	r6, [r2, -ip, ror #18]!
 5e4:	632f6363 	teqvs	pc, #-1946157055	; 0x8c000001
 5e8:	69666e6f 	stmdbvs	r6!, {r0, r1, r2, r3, r5, r6, r9, sl, fp, sp, lr}^
 5ec:	72612f67 	rsbvc	r2, r1, #412	; 0x19c
 5f0:	6900006d 	stmdbvs	r0, {r0, r2, r3, r5, r6}
 5f4:	37656565 	strbcc	r6, [r5, -r5, ror #10]!
 5f8:	642d3435 	strtvs	r3, [sp], #-1077	; 0x435
 5fc:	00532e66 	subseq	r2, r3, r6, ror #28
 600:	00000001 	andeq	r0, r0, r1
 604:	30020500 	andcc	r0, r2, r0, lsl #10
 608:	030000b6 	movweq	r0, #182	; 0xb6
 60c:	2f0109ec 	svccs	0x000109ec
 610:	2f2f2f2f 	svccs	0x002f2f2f
 614:	2f2f312f 	svccs	0x002f312f
 618:	2f302f2f 	svccs	0x00302f2f
 61c:	2f302f30 	svccs	0x00302f30
 620:	302f302f 	eorcc	r3, pc, pc, lsr #32
 624:	0002022f 	andeq	r0, r2, pc, lsr #4
 628:	00790101 	rsbseq	r0, r9, r1, lsl #2
 62c:	00020000 	andeq	r0, r2, r0
 630:	0000004f 	andeq	r0, r0, pc, asr #32
 634:	0efb0102 	cdpeq	1, 15, cr0, cr11, cr2, {0}
 638:	0101000d 	tsteq	r1, sp
 63c:	00000101 	andeq	r0, r0, r1, lsl #2
 640:	00000100 	andeq	r0, r0, r0, lsl #2
 644:	2f2e2e01 	svccs	0x002e2e01
 648:	2e2f2e2e 	cdpcs	14, 2, cr2, cr15, cr14, {1}
 64c:	2e2e2f2e 	cdpcs	15, 2, cr2, cr14, cr14, {1}
 650:	6372732f 	cmnvs	r2, #-1140850688	; 0xbc000000
 654:	6363672f 	cmnvs	r3, #12320768	; 0xbc0000
 658:	382e342d 	stmdacc	lr!, {r0, r2, r3, r5, sl, ip, sp}
 65c:	6c2f312e 	stfvss	f3, [pc], #-184	; 5ac <_init-0x7a54>
 660:	63676269 	cmnvs	r7, #-1879048186	; 0x90000006
 664:	6f632f63 	svcvs	0x00632f63
 668:	6769666e 	strbvs	r6, [r9, -lr, ror #12]!
 66c:	6d72612f 	ldfvse	f6, [r2, #-188]!	; 0xffffff44
 670:	65690000 	strbvs	r0, [r9, #-0]!
 674:	35376565 	ldrcc	r6, [r7, #-1381]!	; 0x565
 678:	66642d34 			; <UNDEFINED> instruction: 0x66642d34
 67c:	0100532e 	tsteq	r0, lr, lsr #6
 680:	00000000 	andeq	r0, r0, r0
 684:	b68c0205 	strlt	r0, [ip], r5, lsl #4
 688:	96030000 	strls	r0, [r3], -r0
 68c:	2f2f010a 	svccs	0x002f010a
 690:	2f2f2f2f 	svccs	0x002f2f2f
 694:	2f2f312f 	svccs	0x002f312f
 698:	2f302f2f 	svccs	0x00302f2f
 69c:	2f2f2f30 	svccs	0x002f2f30
 6a0:	02022f30 	andeq	r2, r2, #48, 30	; 0xc0
 6a4:	69010100 	stmdbvs	r1, {r8}
 6a8:	02000000 	andeq	r0, r0, #0
 6ac:	00004a00 	andeq	r4, r0, r0, lsl #20
 6b0:	fb010200 	blx	40eba <__bss_end__+0x2bf02>
 6b4:	01000d0e 	tsteq	r0, lr, lsl #26
 6b8:	00010101 	andeq	r0, r1, r1, lsl #2
 6bc:	00010000 	andeq	r0, r1, r0
 6c0:	2e2e0100 	sufcse	f0, f6, f0
 6c4:	2f2e2e2f 	svccs	0x002e2e2f
 6c8:	2e2f2e2e 	cdpcs	14, 2, cr2, cr15, cr14, {1}
 6cc:	72732f2e 	rsbsvc	r2, r3, #46, 30	; 0xb8
 6d0:	63672f63 	cmnvs	r7, #396	; 0x18c
 6d4:	2e342d63 	cdpcs	13, 3, cr2, cr4, cr3, {3}
 6d8:	2f312e38 	svccs	0x00312e38
 6dc:	6762696c 	strbvs	r6, [r2, -ip, ror #18]!
 6e0:	632f6363 	teqvs	pc, #-1946157055	; 0x8c000001
 6e4:	69666e6f 	stmdbvs	r6!, {r0, r1, r2, r3, r5, r6, r9, sl, fp, sp, lr}^
 6e8:	72612f67 	rsbvc	r2, r1, #412	; 0x19c
 6ec:	6200006d 	andvs	r0, r0, #109	; 0x6d
 6f0:	69626170 	stmdbvs	r2!, {r4, r5, r6, r8, sp, lr}^
 6f4:	0100532e 	tsteq	r0, lr, lsr #6
 6f8:	00000000 	andeq	r0, r0, r0
 6fc:	b6e00205 	strbtlt	r0, [r0], r5, lsl #4
 700:	e6030000 	str	r0, [r3], -r0
 704:	2d030100 	stfcss	f0, [r3, #-0]
 708:	2f3033f2 	svccs	0x003033f2
 70c:	022f2f2f 	eoreq	r2, pc, #47, 30	; 0xbc
 710:	01010002 	tsteq	r1, r2
 714:	0000006a 	andeq	r0, r0, sl, rrx
 718:	004a0002 	subeq	r0, sl, r2
 71c:	01020000 	mrseq	r0, (UNDEF: 2)
 720:	000d0efb 	strdeq	r0, [sp], -fp
 724:	01010101 	tsteq	r1, r1, lsl #2
 728:	01000000 	mrseq	r0, (UNDEF: 0)
 72c:	2e010000 	cdpcs	0, 0, cr0, cr1, cr0, {0}
 730:	2e2e2f2e 	cdpcs	15, 2, cr2, cr14, cr14, {1}
 734:	2f2e2e2f 	svccs	0x002e2e2f
 738:	732f2e2e 	teqvc	pc, #736	; 0x2e0
 73c:	672f6372 			; <UNDEFINED> instruction: 0x672f6372
 740:	342d6363 	strtcc	r6, [sp], #-867	; 0x363
 744:	312e382e 	teqcc	lr, lr, lsr #16
 748:	62696c2f 	rsbvs	r6, r9, #12032	; 0x2f00
 74c:	2f636367 	svccs	0x00636367
 750:	666e6f63 	strbtvs	r6, [lr], -r3, ror #30
 754:	612f6769 	teqvs	pc, r9, ror #14
 758:	00006d72 	andeq	r6, r0, r2, ror sp
 75c:	62617062 	rsbvs	r7, r1, #98	; 0x62
 760:	00632e69 	rsbeq	r2, r3, r9, ror #28
 764:	00000001 	andeq	r0, r0, r1
 768:	1c020500 	cfstr32ne	mvfx0, [r2], {-0}
 76c:	030000b7 	movweq	r0, #183	; 0xb7
 770:	a12e0125 	teqge	lr, r5, lsr #2
 774:	bc2f2d2f 	stclt	13, cr2, [pc], #-188	; 6c0 <_init-0x7940>
 778:	2fa12e50 	svccs	0x00a12e50
 77c:	000402d8 	ldrdeq	r0, [r4], -r8
 780:	00e40101 	rsceq	r0, r4, r1, lsl #2
 784:	00020000 	andeq	r0, r2, r0
 788:	0000004e 	andeq	r0, r0, lr, asr #32
 78c:	0efb0102 	cdpeq	1, 15, cr0, cr11, cr2, {0}
 790:	0101000d 	tsteq	r1, sp
 794:	00000101 	andeq	r0, r0, r1, lsl #2
 798:	00000100 	andeq	r0, r0, r0, lsl #2
 79c:	2f2e2e01 	svccs	0x002e2e01
 7a0:	2e2f2e2e 	cdpcs	14, 2, cr2, cr15, cr14, {1}
 7a4:	2e2e2f2e 	cdpcs	15, 2, cr2, cr14, cr14, {1}
 7a8:	6372732f 	cmnvs	r2, #-1140850688	; 0xbc000000
 7ac:	6363672f 	cmnvs	r3, #12320768	; 0xbc0000
 7b0:	382e342d 	stmdacc	lr!, {r0, r2, r3, r5, sl, ip, sp}
 7b4:	6c2f312e 	stfvss	f3, [pc], #-184	; 704 <_init-0x78fc>
 7b8:	63676269 	cmnvs	r7, #-1879048186	; 0x90000006
 7bc:	6c000063 	stcvs	0, cr0, [r0], {99}	; 0x63
 7c0:	63676269 	cmnvs	r7, #-1879048186	; 0x90000006
 7c4:	632e3263 	teqvs	lr, #805306374	; 0x30000006
 7c8:	00000100 	andeq	r0, r0, r0, lsl #2
 7cc:	6762696c 	strbvs	r6, [r2, -ip, ror #18]!
 7d0:	2e326363 	cdpcs	3, 3, cr6, cr2, cr3, {3}
 7d4:	00010068 	andeq	r0, r1, r8, rrx
 7d8:	05000000 	streq	r0, [r0, #-0]
 7dc:	00b7a002 	adcseq	sl, r7, r2
 7e0:	08dd0300 	ldmeq	sp, {r8, r9}^
 7e4:	2f483601 	svccs	0x00483601
 7e8:	36667a03 	strbtcc	r7, [r6], -r3, lsl #20
 7ec:	032e7703 	teqeq	lr, #786432	; 0xc0000
 7f0:	d0032e09 	andle	r2, r3, r9, lsl #28
 7f4:	51032e7e 	tstpl	r3, lr, ror lr
 7f8:	30504b2e 	subscc	r4, r0, lr, lsr #22
 7fc:	2e25032f 	cdpcs	3, 2, cr0, cr5, cr15, {1}
 800:	344c4e30 	strbcc	r4, [ip], #-3632	; 0xe30
 804:	312f2f49 	teqcc	pc, r9, asr #30
 808:	0201a303 	andeq	sl, r1, #201326592	; 0xc000000
 80c:	6b03015c 	blvs	c0d84 <_stack+0x40d84>
 810:	4a15032e 	bmi	5414d0 <_stack+0x4c14d0>
 814:	93034d2f 	movwls	r4, #15663	; 0x3d2f
 818:	1303667f 	movwne	r6, #13951	; 0x367f
 81c:	0a038382 	beq	e162c <_stack+0x6162c>
 820:	03478582 	movteq	r8, #30082	; 0x7582
 824:	4b4a7fb1 	blmi	12a06f0 <_stack+0x12206f0>
 828:	09034c84 	stmdbeq	r3, {r2, r7, sl, fp, lr}
 82c:	82130366 	andshi	r0, r3, #-1744830463	; 0x98000001
 830:	0200f503 	andeq	pc, r0, #12582912	; 0xc00000
 834:	032f0158 	teqeq	pc, #88, 2
 838:	2c667f80 	stclcs	15, cr7, [r6], #-512	; 0xfffffe00
 83c:	63312f31 	teqvs	r1, #49, 30	; 0xc4
 840:	c903302f 	stmdbgt	r3, {r0, r1, r2, r3, r5, ip, sp}
 844:	01600200 	cmneq	r0, r0, lsl #4
 848:	312f4c30 	teqcc	pc, r0, lsr ip	; <UNPREDICTABLE>
 84c:	c3083163 	movwgt	r3, #33123	; 0x8163
 850:	13460233 	movtne	r0, #25139	; 0x6233
 854:	3e08312d 	adfccep	f3, f0, #5.0
 858:	7fae032f 	svcvc	0x00ae032f
 85c:	00cc034a 	sbceq	r0, ip, sl, asr #6
 860:	7faf034a 	svcvc	0x00af034a
 864:	00040282 	andeq	r0, r4, r2, lsl #5
 868:	00da0101 	sbcseq	r0, sl, r1, lsl #2
 86c:	00020000 	andeq	r0, r2, r0
 870:	0000004e 	andeq	r0, r0, lr, asr #32
 874:	0efb0102 	cdpeq	1, 15, cr0, cr11, cr2, {0}
 878:	0101000d 	tsteq	r1, sp
 87c:	00000101 	andeq	r0, r0, r1, lsl #2
 880:	00000100 	andeq	r0, r0, r0, lsl #2
 884:	2f2e2e01 	svccs	0x002e2e01
 888:	2e2f2e2e 	cdpcs	14, 2, cr2, cr15, cr14, {1}
 88c:	2e2e2f2e 	cdpcs	15, 2, cr2, cr14, cr14, {1}
 890:	6372732f 	cmnvs	r2, #-1140850688	; 0xbc000000
 894:	6363672f 	cmnvs	r3, #12320768	; 0xbc0000
 898:	382e342d 	stmdacc	lr!, {r0, r2, r3, r5, sl, ip, sp}
 89c:	6c2f312e 	stfvss	f3, [pc], #-184	; 7ec <_init-0x7814>
 8a0:	63676269 	cmnvs	r7, #-1879048186	; 0x90000006
 8a4:	6c000063 	stcvs	0, cr0, [r0], {99}	; 0x63
 8a8:	63676269 	cmnvs	r7, #-1879048186	; 0x90000006
 8ac:	632e3263 	teqvs	lr, #805306374	; 0x30000006
 8b0:	00000100 	andeq	r0, r0, r0, lsl #2
 8b4:	6762696c 	strbvs	r6, [r2, -ip, ror #18]!
 8b8:	2e326363 	cdpcs	3, 3, cr6, cr2, cr3, {3}
 8bc:	00010068 	andeq	r0, r1, r8, rrx
 8c0:	05000000 	streq	r0, [r0, #-0]
 8c4:	00bc7002 	adcseq	r7, ip, r2
 8c8:	09980300 	ldmibeq	r8, {r8, r9}
 8cc:	7e9e0301 	cdpvc	3, 9, cr0, cr14, cr1, {0}
 8d0:	01e2032e 	mvneq	r0, lr, lsr #6
 8d4:	f6032e2e 			; <UNDEFINED> instruction: 0xf6032e2e
 8d8:	2f30827d 	svccs	0x0030827d
 8dc:	302e2503 	eorcc	r2, lr, r3, lsl #10
 8e0:	49344c4e 	ldmdbmi	r4!, {r1, r2, r3, r6, sl, fp, lr}
 8e4:	312b322f 	teqcc	fp, pc, lsr #4
 8e8:	0201d203 	andeq	sp, r1, #805306368	; 0x30000000
 8ec:	e8030158 	stmda	r3, {r3, r4, r6, r8}
 8f0:	1303827e 	movwne	r8, #12926	; 0x327e
 8f4:	0a034b82 	beq	d3704 <_stack+0x53704>
 8f8:	0347854a 	movteq	r8, #30026	; 0x754a
 8fc:	4b4a7fb1 	blmi	12a07c8 <_stack+0x12207c8>
 900:	09034c84 	stmdbeq	r3, {r2, r7, sl, fp, lr}
 904:	82130366 	andshi	r0, r3, #-1744830463	; 0x98000001
 908:	0201a803 	andeq	sl, r1, #196608	; 0x30000
 90c:	9c030150 	stflss	f0, [r3], {80}	; 0x50
 910:	4c30827f 	lfmmi	f0, 1, [r0], #-508	; 0xfffffe04
 914:	3163312f 	cmncc	r3, pc, lsr #2
 918:	02338b08 	eorseq	r8, r3, #8, 22	; 0x2000
 91c:	312d1338 	teqcc	sp, r8, lsr r3
 920:	032d2308 	teqeq	sp, #8, 6	; 0x20000000
 924:	032e00d7 	teqeq	lr, #215	; 0xd7
 928:	2c827ece 	stccs	14, cr7, [r2], {206}	; 0xce
 92c:	64312f31 	ldrtvs	r2, [r1], #-3889	; 0xf31
 930:	5b03312d 	blpl	ccdec <_stack+0x4cdec>
 934:	03015802 	movweq	r5, #6146	; 0x1802
 938:	cc034a2a 	stcgt	10, cr4, [r3], {42}	; 0x2a
 93c:	af038200 	svcge	0x00038200
 940:	023c087f 	eorseq	r0, ip, #8323072	; 0x7f0000
 944:	01010004 	tsteq	r1, r4
 948:	00000071 	andeq	r0, r0, r1, ror r0
 94c:	004e0002 	subeq	r0, lr, r2
 950:	01020000 	mrseq	r0, (UNDEF: 2)
 954:	000d0efb 	strdeq	r0, [sp], -fp
 958:	01010101 	tsteq	r1, r1, lsl #2
 95c:	01000000 	mrseq	r0, (UNDEF: 0)
 960:	2e010000 	cdpcs	0, 0, cr0, cr1, cr0, {0}
 964:	2e2e2f2e 	cdpcs	15, 2, cr2, cr14, cr14, {1}
 968:	2f2e2e2f 	svccs	0x002e2e2f
 96c:	732f2e2e 	teqvc	pc, #736	; 0x2e0
 970:	672f6372 			; <UNDEFINED> instruction: 0x672f6372
 974:	342d6363 	strtcc	r6, [sp], #-867	; 0x363
 978:	312e382e 	teqcc	lr, lr, lsr #16
 97c:	62696c2f 	rsbvs	r6, r9, #12032	; 0x2f00
 980:	2f636367 	svccs	0x00636367
 984:	666e6f63 	strbtvs	r6, [lr], -r3, ror #30
 988:	612f6769 	teqvs	pc, r9, ror #14
 98c:	00006d72 	andeq	r6, r0, r2, ror sp
 990:	3162696c 	cmncc	r2, ip, ror #18
 994:	636e7566 	cmnvs	lr, #427819008	; 0x19800000
 998:	00532e73 	subseq	r2, r3, r3, ror lr
 99c:	00000001 	andeq	r0, r0, r1
 9a0:	e0020500 	and	r0, r2, r0, lsl #10
 9a4:	030000c0 	movweq	r0, #192	; 0xc0
 9a8:	2f010bf5 	svccs	0x00010bf5
 9ac:	302f2f30 	eorcc	r2, pc, r0, lsr pc	; <UNPREDICTABLE>
 9b0:	2f302f2f 	svccs	0x00302f2f
 9b4:	2f2f2f2f 	svccs	0x002f2f2f
 9b8:	01000a02 	tsteq	r0, r2, lsl #20
 9bc:	Address 0x00000000000009bc is out of bounds.


Disassembly of section .debug_frame:

00000000 <.debug_frame>:
   0:	0000000c 	andeq	r0, r0, ip
   4:	ffffffff 			; <UNDEFINED> instruction: 0xffffffff
   8:	7c010001 	stcvc	0, cr0, [r1], {1}
   c:	000d0c0e 	andeq	r0, sp, lr, lsl #24
  10:	0000000c 	andeq	r0, r0, ip
  14:	00000000 	andeq	r0, r0, r0
  18:	0000a9b8 			; <UNDEFINED> instruction: 0x0000a9b8
  1c:	000000f4 	strdeq	r0, [r0], -r4
  20:	0000000c 	andeq	r0, r0, ip
  24:	ffffffff 			; <UNDEFINED> instruction: 0xffffffff
  28:	7c010001 	stcvc	0, cr0, [r1], {1}
  2c:	000d0c0e 	andeq	r0, sp, lr, lsl #24
  30:	0000000c 	andeq	r0, r0, ip
  34:	00000020 	andeq	r0, r0, r0, lsr #32
  38:	0000aacc 	andeq	sl, r0, ip, asr #21
  3c:	00000128 	andeq	r0, r0, r8, lsr #2
  40:	0000000c 	andeq	r0, r0, ip
  44:	ffffffff 			; <UNDEFINED> instruction: 0xffffffff
  48:	7c020001 	stcvc	0, cr0, [r2], {1}
  4c:	000d0c0e 	andeq	r0, sp, lr, lsl #24
  50:	00000020 	andeq	r0, r0, r0, lsr #32
  54:	00000040 	andeq	r0, r0, r0, asr #32
  58:	0000b71c 	andeq	fp, r0, ip, lsl r7
  5c:	00000044 	andeq	r0, r0, r4, asr #32
  60:	84200e42 	strthi	r0, [r0], #-3650	; 0xe42
  64:	86078508 	strhi	r8, [r7], -r8, lsl #10
  68:	88058706 	stmdahi	r5, {r1, r2, r8, r9, sl, pc}
  6c:	8a038904 	bhi	e2484 <_stack+0x62484>
  70:	00018e02 	andeq	r8, r1, r2, lsl #28
  74:	00000020 	andeq	r0, r0, r0, lsr #32
  78:	00000040 	andeq	r0, r0, r0, asr #32
  7c:	0000b760 	andeq	fp, r0, r0, ror #14
  80:	00000040 	andeq	r0, r0, r0, asr #32
  84:	83200e42 	teqhi	r0, #1056	; 0x420
  88:	85078408 	strhi	r8, [r7, #-1032]	; 0x408
  8c:	87058606 	strhi	r8, [r5, -r6, lsl #12]
  90:	89038804 	stmdbhi	r3, {r2, fp, pc}
  94:	00018e02 	andeq	r8, r1, r2, lsl #28
  98:	0000000c 	andeq	r0, r0, ip
  9c:	ffffffff 			; <UNDEFINED> instruction: 0xffffffff
  a0:	7c020001 	stcvc	0, cr0, [r2], {1}
  a4:	000d0c0e 	andeq	r0, sp, lr, lsl #24
  a8:	00000024 	andeq	r0, r0, r4, lsr #32
  ac:	00000098 	muleq	r0, r8, r0
  b0:	0000b7a0 	andeq	fp, r0, r0, lsr #15
  b4:	000004d0 	ldrdeq	r0, [r0], -r0	; <UNPREDICTABLE>
  b8:	84240e42 	strthi	r0, [r4], #-3650	; 0xe42
  bc:	86088509 	strhi	r8, [r8], -r9, lsl #10
  c0:	88068707 	stmdahi	r6, {r0, r1, r2, r8, r9, sl, pc}
  c4:	8a048905 	bhi	1224e0 <_stack+0xa24e0>
  c8:	8e028b03 	vmlahi.f64	d8, d2, d3
  cc:	380e5201 	stmdacc	lr, {r0, r9, ip, lr}
  d0:	0000000c 	andeq	r0, r0, ip
  d4:	ffffffff 			; <UNDEFINED> instruction: 0xffffffff
  d8:	7c020001 	stcvc	0, cr0, [r2], {1}
  dc:	000d0c0e 	andeq	r0, sp, lr, lsl #24
  e0:	00000024 	andeq	r0, r0, r4, lsr #32
  e4:	000000d0 	ldrdeq	r0, [r0], -r0	; <UNPREDICTABLE>
  e8:	0000bc70 	andeq	fp, r0, r0, ror ip
  ec:	00000470 	andeq	r0, r0, r0, ror r4
  f0:	84240e42 	strthi	r0, [r4], #-3650	; 0xe42
  f4:	86088509 	strhi	r8, [r8], -r9, lsl #10
  f8:	88068707 	stmdahi	r6, {r0, r1, r2, r8, r9, sl, pc}
  fc:	8a048905 	bhi	122518 <_stack+0xa2518>
 100:	8e028b03 	vmlahi.f64	d8, d2, d3
 104:	300e4401 	andcc	r4, lr, r1, lsl #8

Disassembly of section .debug_str:

00000000 <.debug_str>:
   0:	69645f5f 	stmdbvs	r4!, {r0, r1, r2, r3, r4, r6, r8, r9, sl, fp, ip, lr}^
   4:	33696476 	cmncc	r9, #1979711488	; 0x76000000
   8:	675f5f00 	ldrbvs	r5, [pc, -r0, lsl #30]
   c:	755f756e 	ldrbvc	r7, [pc, #-1390]	; fffffaa6 <_stack+0xfff7faa6>
  10:	7669646c 	strbtvc	r6, [r9], -ip, ror #8
  14:	5f646f6d 	svcpl	0x00646f6d
  18:	706c6568 	rsbvc	r6, ip, r8, ror #10
  1c:	47007265 	strmi	r7, [r0, -r5, ror #4]
  20:	4320554e 	teqmi	r0, #327155712	; 0x13800000
  24:	382e3420 	stmdacc	lr!, {r5, sl, ip, sp}
  28:	2d20312e 	stfcss	f3, [r0, #-184]!	; 0xffffff48
  2c:	672d2067 	strvs	r2, [sp, -r7, rrx]!
  30:	20672d20 	rsbcs	r2, r7, r0, lsr #26
  34:	20324f2d 	eorscs	r4, r2, sp, lsr #30
  38:	20324f2d 	eorscs	r4, r2, sp, lsr #30
  3c:	20324f2d 	eorscs	r4, r2, sp, lsr #30
  40:	7562662d 	strbvc	r6, [r2, #-1581]!	; 0x62d
  44:	69646c69 	stmdbvs	r4!, {r0, r3, r5, r6, sl, fp, sp, lr}^
  48:	6c2d676e 	stcvs	7, cr6, [sp], #-440	; 0xfffffe48
  4c:	63676269 	cmnvs	r7, #-1879048186	; 0x90000006
  50:	662d2063 	strtvs	r2, [sp], -r3, rrx
  54:	732d6f6e 	teqvc	sp, #440	; 0x1b8
  58:	6b636174 	blvs	18d8630 <_stack+0x1858630>
  5c:	6f72702d 	svcvs	0x0072702d
  60:	74636574 	strbtvc	r6, [r3], #-1396	; 0x574
  64:	2d20726f 	sfmcs	f7, 4, [r0, #-444]!	; 0xfffffe44
  68:	2d6f6e66 	stclcs	14, cr6, [pc, #-408]!	; fffffed8 <_stack+0xfff7fed8>
  6c:	696c6e69 	stmdbvs	ip!, {r0, r3, r5, r6, r9, sl, fp, sp, lr}^
  70:	2d20656e 	cfstr32cs	mvfx6, [r0, #-440]!	; 0xfffffe48
  74:	73697666 	cmnvc	r9, #106954752	; 0x6600000
  78:	6c696269 	sfmvs	f6, 2, [r9], #-420	; 0xfffffe5c
  7c:	3d797469 	cfldrdcc	mvd7, [r9, #-420]!	; 0xfffffe5c
  80:	64646968 	strbtvs	r6, [r4], #-2408	; 0x968
  84:	2e006e65 	cdpcs	14, 0, cr6, cr0, cr5, {3}
  88:	2e2e2f2e 	cdpcs	15, 2, cr2, cr14, cr14, {1}
  8c:	2f2e2e2f 	svccs	0x002e2e2f
  90:	732f2e2e 	teqvc	pc, #736	; 0x2e0
  94:	672f6372 			; <UNDEFINED> instruction: 0x672f6372
  98:	342d6363 	strtcc	r6, [sp], #-867	; 0x363
  9c:	312e382e 	teqcc	lr, lr, lsr #16
  a0:	62696c2f 	rsbvs	r6, r9, #12032	; 0x2f00
  a4:	2f636367 	svccs	0x00636367
  a8:	666e6f63 	strbtvs	r6, [lr], -r3, ror #30
  ac:	612f6769 	teqvs	pc, r9, ror #14
  b0:	622f6d72 	eorvs	r6, pc, #7296	; 0x1c80
  b4:	69626170 	stmdbvs	r2!, {r4, r5, r6, r8, sp, lr}^
  b8:	7200632e 	andvc	r6, r0, #-1207959552	; 0xb8000000
  bc:	69616d65 	stmdbvs	r1!, {r0, r2, r5, r6, r8, sl, fp, sp, lr}^
  c0:	7265646e 	rsbvc	r6, r5, #1845493760	; 0x6e000000
  c4:	6e6f6c00 	cdpvs	12, 6, cr6, cr15, cr0, {0}
  c8:	6f6c2067 	svcvs	0x006c2067
  cc:	7520676e 	strvc	r6, [r0, #-1902]!	; 0x76e
  d0:	6769736e 	strbvs	r7, [r9, -lr, ror #6]!
  d4:	2064656e 	rsbcs	r6, r4, lr, ror #10
  d8:	00746e69 	rsbseq	r6, r4, r9, ror #28
  dc:	676e6f6c 	strbvs	r6, [lr, -ip, ror #30]!
  e0:	6e6f6c20 	cdpvs	12, 6, cr6, cr15, cr0, {1}
  e4:	6e692067 	cdpvs	0, 6, cr2, cr9, cr7, {3}
  e8:	742f0074 	strtvc	r0, [pc], #-116	; f0 <_init-0x7f10>
  ec:	632f706d 	teqvs	pc, #109	; 0x6d
  f0:	7372756f 	cmnvc	r2, #465567744	; 0x1bc00000
  f4:	736f5f65 	cmnvc	pc, #404	; 0x194
  f8:	7261742f 	rsbvc	r7, r1, #788529152	; 0x2f000000
  fc:	2f746567 	svccs	0x00746567
 100:	6c697562 	cfstr64vs	mvdx7, [r9], #-392	; 0xfffffe78
 104:	63672f64 	cmnvs	r7, #100, 30	; 0x190
 108:	2e342d63 	cdpcs	13, 3, cr2, cr4, cr3, {3}
 10c:	2f312e38 	svccs	0x00312e38
 110:	2d6d7261 	sfmcs	f7, 2, [sp, #-388]!	; 0xfffffe7c
 114:	656e6f6e 	strbvs	r6, [lr, #-3950]!	; 0xf6e
 118:	6261652d 	rsbvs	r6, r1, #188743680	; 0xb400000
 11c:	696c2f69 	stmdbvs	ip!, {r0, r3, r5, r6, r8, r9, sl, fp, sp}^
 120:	63636762 	cmnvs	r3, #25690112	; 0x1880000
 124:	675f5f00 	ldrbvs	r5, [pc, -r0, lsl #30]
 128:	6c5f756e 	cfldr64vs	mvdx7, [pc], {110}	; 0x6e
 12c:	6d766964 	ldclvs	9, cr6, [r6, #-400]!	; 0xfffffe70
 130:	685f646f 	ldmdavs	pc, {r0, r1, r2, r3, r5, r6, sl, sp, lr}^	; <UNPREDICTABLE>
 134:	65706c65 	ldrbvs	r6, [r0, #-3173]!	; 0xc65
 138:	5f5f0072 	svcpl	0x005f0072
 13c:	76696475 			; <UNDEFINED> instruction: 0x76696475
 140:	00336964 	eorseq	r6, r3, r4, ror #18
 144:	746f7571 	strbtvc	r7, [pc], #-1393	; 14c <_init-0x7eb4>
 148:	746e6569 	strbtvc	r6, [lr], #-1385	; 0x569
 14c:	725f5f00 	subsvc	r5, pc, #0, 30
 150:	5f5f0030 	svcpl	0x005f0030
 154:	68003172 	stmdavs	r0, {r1, r4, r5, r6, r8, ip, sp}
 158:	00686769 	rsbeq	r6, r8, r9, ror #14
 15c:	30745f5f 	rsbscc	r5, r4, pc, asr pc
 160:	2f2e2e00 	svccs	0x002e2e00
 164:	2e2f2e2e 	cdpcs	14, 2, cr2, cr15, cr14, {1}
 168:	2e2e2f2e 	cdpcs	15, 2, cr2, cr14, cr14, {1}
 16c:	6372732f 	cmnvs	r2, #-1140850688	; 0xbc000000
 170:	6363672f 	cmnvs	r3, #12320768	; 0xbc0000
 174:	382e342d 	stmdacc	lr!, {r0, r2, r3, r5, sl, ip, sp}
 178:	6c2f312e 	stfvss	f3, [pc], #-184	; c8 <_init-0x7f38>
 17c:	63676269 	cmnvs	r7, #-1879048186	; 0x90000006
 180:	696c2f63 	stmdbvs	ip!, {r0, r1, r5, r6, r8, r9, sl, fp, sp}^
 184:	63636762 	cmnvs	r3, #25690112	; 0x1880000
 188:	00632e32 	rsbeq	r2, r3, r2, lsr lr
 18c:	74495355 	strbvc	r5, [r9], #-853	; 0x355
 190:	00657079 	rsbeq	r7, r5, r9, ror r0
 194:	69736e75 	ldmdbvs	r3!, {r0, r2, r4, r5, r6, r9, sl, fp, sp, lr}^
 198:	64656e67 	strbtvs	r6, [r5], #-3687	; 0xe67
 19c:	61686320 	cmnvs	r8, r0, lsr #6
 1a0:	68730072 	ldmdavs	r3!, {r1, r4, r5, r6}^
 1a4:	2074726f 	rsbscs	r7, r4, pc, ror #4
 1a8:	69736e75 	ldmdbvs	r3!, {r0, r2, r4, r5, r6, r9, sl, fp, sp, lr}^
 1ac:	64656e67 	strbtvs	r6, [r5], #-3687	; 0xe67
 1b0:	746e6920 	strbtvc	r6, [lr], #-2336	; 0x920
 1b4:	75574400 	ldrbvc	r4, [r7, #-1024]	; 0x400
 1b8:	6e6f696e 	cdpvs	9, 6, cr6, cr15, cr14, {3}
 1bc:	645f5f00 	ldrbvs	r5, [pc], #-3840	; 1c4 <_init-0x7e3c>
 1c0:	5f5f0030 	svcpl	0x005f0030
 1c4:	5f003071 	svcpl	0x00003071
 1c8:	0031715f 	eorseq	r7, r1, pc, asr r1
 1cc:	74494455 	strbvc	r4, [r9], #-1109	; 0x455
 1d0:	00657079 	rsbeq	r7, r5, r9, ror r0
 1d4:	706d6f63 	rsbvc	r6, sp, r3, ror #30
 1d8:	2078656c 	rsbscs	r6, r8, ip, ror #10
 1dc:	616f6c66 	cmnvs	pc, r6, ror #24
 1e0:	69730074 	ldmdbvs	r3!, {r2, r4, r5, r6}^
 1e4:	7974657a 	ldmdbvc	r4!, {r1, r3, r4, r5, r6, r8, sl, sp, lr}^
 1e8:	5f006570 	svcpl	0x00006570
 1ec:	0031645f 	eorseq	r6, r1, pc, asr r4
 1f0:	20554e47 	subscs	r4, r5, r7, asr #28
 1f4:	2e342043 	cdpcs	0, 3, cr2, cr4, cr3, {2}
 1f8:	20312e38 	eorscs	r2, r1, r8, lsr lr
 1fc:	2d20672d 	stccs	7, cr6, [r0, #-180]!	; 0xffffff4c
 200:	672d2067 	strvs	r2, [sp, -r7, rrx]!
 204:	324f2d20 	subcc	r2, pc, #32, 26	; 0x800
 208:	324f2d20 	subcc	r2, pc, #32, 26	; 0x800
 20c:	324f2d20 	subcc	r2, pc, #32, 26	; 0x800
 210:	62662d20 	rsbvs	r2, r6, #32, 26	; 0x800
 214:	646c6975 	strbtvs	r6, [ip], #-2421	; 0x975
 218:	2d676e69 	stclcs	14, cr6, [r7, #-420]!	; 0xfffffe5c
 21c:	6762696c 	strbvs	r6, [r2, -ip, ror #18]!
 220:	2d206363 	stccs	3, cr6, [r0, #-396]!	; 0xfffffe74
 224:	2d6f6e66 	stclcs	14, cr6, [pc, #-408]!	; 94 <_init-0x7f6c>
 228:	63617473 	cmnvs	r1, #1929379840	; 0x73000000
 22c:	72702d6b 	rsbsvc	r2, r0, #6848	; 0x1ac0
 230:	6365746f 	cmnvs	r5, #1862270976	; 0x6f000000
 234:	20726f74 	rsbscs	r6, r2, r4, ror pc
 238:	6f6e662d 	svcvs	0x006e662d
 23c:	6c6e692d 	stclvs	9, cr6, [lr], #-180	; 0xffffff4c
 240:	20656e69 	rsbcs	r6, r5, r9, ror #28
 244:	7865662d 	stmdavc	r5!, {r0, r2, r3, r5, r9, sl, sp, lr}^
 248:	74706563 	ldrbtvc	r6, [r0], #-1379	; 0x563
 24c:	736e6f69 	cmnvc	lr, #420	; 0x1a4
 250:	76662d20 	strbtvc	r2, [r6], -r0, lsr #26
 254:	62697369 	rsbvs	r7, r9, #-1543503871	; 0xa4000001
 258:	74696c69 	strbtvc	r6, [r9], #-3177	; 0xc69
 25c:	69683d79 	stmdbvs	r8!, {r0, r3, r4, r5, r6, r8, sl, fp, ip, sp}^
 260:	6e656464 	cdpvs	4, 6, cr6, cr5, cr4, {3}
 264:	6f687300 	svcvs	0x00687300
 268:	69207472 	stmdbvs	r0!, {r1, r4, r5, r6, sl, ip, sp, lr}
 26c:	6300746e 	movwvs	r7, #1134	; 0x46e
 270:	6c706d6f 	ldclvs	13, cr6, [r0], #-444	; 0xfffffe44
 274:	64207865 	strtvs	r7, [r0], #-2149	; 0x865
 278:	6c62756f 	cfstr64vs	mvdx7, [r2], #-444	; 0xfffffe44
 27c:	57440065 	strbpl	r0, [r4, -r5, rrx]
 280:	75727473 	ldrbvc	r7, [r2, #-1139]!	; 0x473
 284:	5f007463 	svcpl	0x00007463
 288:	6964755f 	stmdbvs	r4!, {r0, r1, r2, r3, r4, r6, r8, sl, ip, sp, lr}^
 28c:	646f6d76 	strbtvs	r6, [pc], #-3446	; 294 <_init-0x7d6c>
 290:	00346964 	eorseq	r6, r4, r4, ror #18

Disassembly of section .debug_loc:

00000000 <.debug_loc>:
       0:	00000000 	andeq	r0, r0, r0
       4:	0000001b 	andeq	r0, r0, fp, lsl r0
       8:	93500006 	cmpls	r0, #6
       c:	04935104 	ldreq	r5, [r3], #260	; 0x104
      10:	0000001b 	andeq	r0, r0, fp, lsl r0
      14:	00000044 	andeq	r0, r0, r4, asr #32
      18:	03f30006 	mvnseq	r0, #6
      1c:	9f2500f5 	svcls	0x002500f5
	...
      2c:	0000001b 	andeq	r0, r0, fp, lsl r0
      30:	93520006 	cmpls	r2, #6
      34:	04935304 	ldreq	r5, [r3], #772	; 0x304
      38:	0000001b 	andeq	r0, r0, fp, lsl r0
      3c:	00000044 	andeq	r0, r0, r4, asr #32
      40:	03f30006 	mvnseq	r0, #6
      44:	9f2502f5 	svcls	0x002502f5
	...
      50:	00000044 	andeq	r0, r0, r4, asr #32
      54:	0000005f 	andeq	r0, r0, pc, asr r0
      58:	93500006 	cmpls	r0, #6
      5c:	04935104 	ldreq	r5, [r3], #260	; 0x104
      60:	0000005f 	andeq	r0, r0, pc, asr r0
      64:	00000084 	andeq	r0, r0, r4, lsl #1
      68:	03f30006 	mvnseq	r0, #6
      6c:	9f2500f5 	svcls	0x002500f5
	...
      78:	00000044 	andeq	r0, r0, r4, asr #32
      7c:	0000005f 	andeq	r0, r0, pc, asr r0
      80:	93520006 	cmpls	r2, #6
      84:	04935304 	ldreq	r5, [r3], #772	; 0x304
      88:	0000005f 	andeq	r0, r0, pc, asr r0
      8c:	00000084 	andeq	r0, r0, r4, lsl #1
      90:	03f30006 	mvnseq	r0, #6
      94:	9f2502f5 	svcls	0x002502f5
	...
      a4:	0000005c 	andeq	r0, r0, ip, asr r0
      a8:	93500006 	cmpls	r0, #6
      ac:	04935104 	ldreq	r5, [r3], #260	; 0x104
      b0:	0000005c 	andeq	r0, r0, ip, asr r0
      b4:	00000154 	andeq	r0, r0, r4, asr r1
      b8:	03f30006 	mvnseq	r0, #6
      bc:	9f2500f5 	svcls	0x002500f5
      c0:	00000154 	andeq	r0, r0, r4, asr r1
      c4:	00000168 	andeq	r0, r0, r8, ror #2
      c8:	93500006 	cmpls	r0, #6
      cc:	04935104 	ldreq	r5, [r3], #260	; 0x104
      d0:	00000168 	andeq	r0, r0, r8, ror #2
      d4:	000001a4 	andeq	r0, r0, r4, lsr #3
      d8:	03f30006 	mvnseq	r0, #6
      dc:	9f2500f5 	svcls	0x002500f5
      e0:	000001a4 	andeq	r0, r0, r4, lsr #3
      e4:	000001b4 			; <UNDEFINED> instruction: 0x000001b4
      e8:	93500006 	cmpls	r0, #6
      ec:	04935104 	ldreq	r5, [r3], #260	; 0x104
      f0:	000001b4 			; <UNDEFINED> instruction: 0x000001b4
      f4:	00000290 	muleq	r0, r0, r2
      f8:	03f30006 	mvnseq	r0, #6
      fc:	9f2500f5 	svcls	0x002500f5
     100:	00000290 	muleq	r0, r0, r2
     104:	000002a0 	andeq	r0, r0, r0, lsr #5
     108:	93500006 	cmpls	r0, #6
     10c:	04935104 	ldreq	r5, [r3], #260	; 0x104
     110:	000002a0 	andeq	r0, r0, r0, lsr #5
     114:	000004d0 	ldrdeq	r0, [r0], -r0	; <UNPREDICTABLE>
     118:	03f30006 	mvnseq	r0, #6
     11c:	9f2500f5 	svcls	0x002500f5
	...
     12c:	0000002c 	andeq	r0, r0, ip, lsr #32
     130:	93520006 	cmpls	r2, #6
     134:	04935304 	ldreq	r5, [r3], #772	; 0x304
     138:	0000002c 	andeq	r0, r0, ip, lsr #32
     13c:	00000290 	muleq	r0, r0, r2
     140:	03f30006 	mvnseq	r0, #6
     144:	9f2502f5 	svcls	0x002502f5
     148:	00000290 	muleq	r0, r0, r2
     14c:	0000029c 	muleq	r0, ip, r2
     150:	93520006 	cmpls	r2, #6
     154:	04935304 	ldreq	r5, [r3], #772	; 0x304
     158:	0000029c 	muleq	r0, ip, r2
     15c:	000002a0 	andeq	r0, r0, r0, lsr #5
     160:	02f50005 	rscseq	r0, r5, #5
     164:	a09f1f25 	addsge	r1, pc, r5, lsr #30
     168:	d0000002 	andle	r0, r0, r2
     16c:	06000004 	streq	r0, [r0], -r4
     170:	f503f300 			; <UNDEFINED> instruction: 0xf503f300
     174:	009f2502 	addseq	r2, pc, r2, lsl #10
	...
     180:	20000000 	andcs	r0, r0, r0
     184:	03000000 	movweq	r0, #0
     188:	9fff0900 	svcls	0x00ff0900
     18c:	00000020 	andeq	r0, r0, r0, lsr #32
     190:	00000150 	andeq	r0, r0, r0, asr r1
     194:	54560001 	ldrbpl	r0, [r6], #-1
     198:	d0000001 	andle	r0, r0, r1
     19c:	01000004 	tsteq	r0, r4
     1a0:	00005600 	andeq	r5, r0, r0, lsl #12
     1a4:	00000000 	andeq	r0, r0, r0
     1a8:	013c0000 	teqeq	ip, r0
     1ac:	01540000 	cmpeq	r4, r0
     1b0:	00060000 	andeq	r0, r6, r0
     1b4:	51049350 	tstpl	r4, r0, asr r3
     1b8:	00000493 	muleq	r0, r3, r4
     1bc:	00000000 	andeq	r0, r0, r0
     1c0:	002c0000 	eoreq	r0, ip, r0
     1c4:	02900000 	addseq	r0, r0, #0
     1c8:	00020000 	andeq	r0, r2, r0
     1cc:	02a09f30 	adceq	r9, r0, #48, 30	; 0xc0
     1d0:	04d00000 	ldrbeq	r0, [r0], #0
     1d4:	00020000 	andeq	r0, r2, r0
     1d8:	00009f30 	andeq	r9, r0, r0, lsr pc
     1dc:	00000000 	andeq	r0, r0, r0
     1e0:	002c0000 	eoreq	r0, ip, r0
     1e4:	005f0000 	subseq	r0, pc, r0
     1e8:	00060000 	andeq	r0, r6, r0
     1ec:	53049352 	movwpl	r9, #17234	; 0x4352
     1f0:	01540493 			; <UNDEFINED> instruction: 0x01540493
     1f4:	01730000 	cmneq	r3, r0
     1f8:	00060000 	andeq	r0, r6, r0
     1fc:	53049352 	movwpl	r9, #17234	; 0x4352
     200:	01a40493 			; <UNDEFINED> instruction: 0x01a40493
     204:	01b70000 			; <UNDEFINED> instruction: 0x01b70000
     208:	00060000 	andeq	r0, r6, r0
     20c:	53049352 	movwpl	r9, #17234	; 0x4352
     210:	00000493 	muleq	r0, r3, r4
     214:	00000000 	andeq	r0, r0, r0
     218:	002c0000 	eoreq	r0, ip, r0
     21c:	007c0000 	rsbseq	r0, ip, r0
     220:	00060000 	andeq	r0, r6, r0
     224:	55049354 	strpl	r9, [r4, #-852]	; 0x354
     228:	01540493 			; <UNDEFINED> instruction: 0x01540493
     22c:	015c0000 	cmpeq	ip, r0
     230:	00060000 	andeq	r0, r6, r0
     234:	55049354 	strpl	r9, [r4, #-852]	; 0x354
     238:	01a40493 			; <UNDEFINED> instruction: 0x01a40493
     23c:	01e00000 	mvneq	r0, r0
     240:	00060000 	andeq	r0, r6, r0
     244:	55049354 	strpl	r9, [r4, #-852]	; 0x354
     248:	02a00493 	adceq	r0, r0, #-1828716544	; 0x93000000
     24c:	02ac0000 	adceq	r0, ip, #0
     250:	00060000 	andeq	r0, r6, r0
     254:	55049354 	strpl	r9, [r4, #-852]	; 0x354
     258:	00000493 	muleq	r0, r3, r4
     25c:	00000000 	andeq	r0, r0, r0
     260:	01300000 	teqeq	r0, r0
     264:	01500000 	cmpeq	r0, r0
     268:	00060000 	andeq	r0, r6, r0
     26c:	5b04935c 	blpl	124fe4 <_stack+0xa4fe4>
     270:	01840493 			; <UNDEFINED> instruction: 0x01840493
     274:	018c0000 	orreq	r0, ip, r0
     278:	00060000 	andeq	r0, r6, r0
     27c:	5b04935c 	blpl	124ff4 <_stack+0xa4ff4>
     280:	00000493 	muleq	r0, r3, r4
     284:	00000000 	andeq	r0, r0, r0
     288:	01300000 	teqeq	r0, r0
     28c:	013c0000 	teqeq	ip, r0
     290:	00060000 	andeq	r0, r6, r0
     294:	5104935a 	tstpl	r4, sl, asr r3
     298:	01840493 			; <UNDEFINED> instruction: 0x01840493
     29c:	018c0000 	orreq	r0, ip, r0
     2a0:	00060000 	andeq	r0, r6, r0
     2a4:	5104935a 	tstpl	r4, sl, asr r3
     2a8:	038c0493 	orreq	r0, ip, #-1828716544	; 0x93000000
     2ac:	03a00000 	moveq	r0, #0
     2b0:	00060000 	andeq	r0, r6, r0
     2b4:	5104935a 	tstpl	r4, sl, asr r3
     2b8:	00000493 	muleq	r0, r3, r4
     2bc:	00000000 	andeq	r0, r0, r0
     2c0:	00440000 	subeq	r0, r4, r0
     2c4:	005f0000 	subseq	r0, pc, r0
     2c8:	00010000 	andeq	r0, r1, r0
     2cc:	00006452 	andeq	r6, r0, r2, asr r4
     2d0:	00007000 	andeq	r7, r0, r0
     2d4:	78000600 	stmdavc	r0, {r9, sl}
     2d8:	24007000 	strcs	r7, [r0], #-0
     2dc:	0000709f 	muleq	r0, pc, r0	; <UNPREDICTABLE>
     2e0:	00008400 	andeq	r8, r0, r0, lsl #8
     2e4:	7a000600 	bvc	1aec <_init-0x6514>
     2e8:	24007000 	strcs	r7, [r0], #-0
     2ec:	0001549f 	muleq	r1, pc, r4	; <UNPREDICTABLE>
     2f0:	00017300 	andeq	r7, r1, r0, lsl #6
     2f4:	52000100 	andpl	r0, r0, #0, 2
     2f8:	000001a4 	andeq	r0, r0, r4, lsr #3
     2fc:	000001b7 			; <UNDEFINED> instruction: 0x000001b7
     300:	a0520001 	subsge	r0, r2, r1
     304:	a4000002 	strge	r0, [r0], #-2
     308:	06000002 	streq	r0, [r0], -r2
     30c:	70007800 	andvc	r7, r0, r0, lsl #16
     310:	a49f2400 	ldrge	r2, [pc], #1024	; 318 <_init-0x7ce8>
     314:	84000002 	strhi	r0, [r0], #-2
     318:	01000003 	tsteq	r0, r3
     31c:	03e85800 	mvneq	r5, #0, 16
     320:	04b00000 	ldrteq	r0, [r0], #0
     324:	00010000 	andeq	r0, r1, r0
     328:	0004b85a 	andeq	fp, r4, sl, asr r8
     32c:	0004c800 	andeq	ip, r4, r0, lsl #16
     330:	5a000100 	bpl	738 <_init-0x78c8>
     334:	000004c8 	andeq	r0, r0, r8, asr #9
     338:	000004d0 	ldrdeq	r0, [r0], -r0	; <UNPREDICTABLE>
     33c:	00580001 	subseq	r0, r8, r1
     340:	00000000 	andeq	r0, r0, r0
     344:	44000000 	strmi	r0, [r0], #-0
     348:	5f000000 	svcpl	0x00000000
     34c:	01000000 	mrseq	r0, (UNDEF: 0)
     350:	01545300 	cmpeq	r4, r0, lsl #6
     354:	01730000 	cmneq	r3, r0
     358:	00010000 	andeq	r0, r1, r0
     35c:	0001a453 	andeq	sl, r1, r3, asr r4
     360:	0001b700 	andeq	fp, r1, r0, lsl #14
     364:	53000100 	movwpl	r0, #256	; 0x100
     368:	00000390 	muleq	r0, r0, r3
     36c:	000004b0 			; <UNDEFINED> instruction: 0x000004b0
     370:	b8580001 	ldmdalt	r8, {r0}^
     374:	c8000004 	stmdagt	r0, {r2}
     378:	01000004 	tsteq	r0, r4
     37c:	00005800 	andeq	r5, r0, r0, lsl #16
     380:	00000000 	andeq	r0, r0, r0
     384:	00480000 	subeq	r0, r8, r0
     388:	00780000 	rsbseq	r0, r8, r0
     38c:	00010000 	andeq	r0, r1, r0
     390:	00007854 	andeq	r7, r0, r4, asr r8
     394:	0000fc00 	andeq	pc, r0, r0, lsl #24
     398:	57000100 	strpl	r0, [r0, -r0, lsl #2]
     39c:	00000154 	andeq	r0, r0, r4, asr r1
     3a0:	0000015c 	andeq	r0, r0, ip, asr r1
     3a4:	a4540001 	ldrbge	r0, [r4], #-1
     3a8:	e0000001 	and	r0, r0, r1
     3ac:	01000001 	tsteq	r0, r1
     3b0:	01e05400 	mvneq	r5, r0, lsl #8
     3b4:	025c0000 	subseq	r0, ip, #0
     3b8:	00010000 	andeq	r0, r1, r0
     3bc:	0002a057 	andeq	sl, r2, r7, asr r0
     3c0:	0002ac00 	andeq	sl, r2, r0, lsl #24
     3c4:	54000100 	strpl	r0, [r0], #-256	; 0x100
     3c8:	000002c4 	andeq	r0, r0, r4, asr #5
     3cc:	00000384 	andeq	r0, r0, r4, lsl #7
     3d0:	e8570001 	ldmda	r7, {r0}^
     3d4:	b0000003 	andlt	r0, r0, r3
     3d8:	06000004 	streq	r0, [r0], -r4
     3dc:	75007700 	strvc	r7, [r0, #-1792]	; 0x700
     3e0:	b09f2400 	addslt	r2, pc, r0, lsl #8
     3e4:	b8000004 	stmdalt	r0, {r2}
     3e8:	01000004 	tsteq	r0, r4
     3ec:	04b85700 	ldrteq	r5, [r8], #1792	; 0x700
     3f0:	04c80000 	strbeq	r0, [r8], #0
     3f4:	00060000 	andeq	r0, r6, r0
     3f8:	00750077 	rsbseq	r0, r5, r7, ror r0
     3fc:	04c89f24 	strbeq	r9, [r8], #3876	; 0xf24
     400:	04d00000 	ldrbeq	r0, [r0], #0
     404:	00010000 	andeq	r0, r1, r0
     408:	00000057 	andeq	r0, r0, r7, asr r0
     40c:	00000000 	andeq	r0, r0, r0
     410:	00004c00 	andeq	r4, r0, r0, lsl #24
     414:	00007400 	andeq	r7, r0, r0, lsl #8
     418:	55000100 	strpl	r0, [r0, #-256]	; 0x100
     41c:	00000074 	andeq	r0, r0, r4, ror r0
     420:	000000d8 	ldrdeq	r0, [r0], -r8
     424:	54590001 	ldrbpl	r0, [r9], #-1
     428:	5c000001 	stcpl	0, cr0, [r0], {1}
     42c:	01000001 	tsteq	r0, r1
     430:	01a45500 			; <UNDEFINED> instruction: 0x01a45500
     434:	01d40000 	bicseq	r0, r4, r0
     438:	00010000 	andeq	r0, r1, r0
     43c:	0001d455 	andeq	sp, r1, r5, asr r4
     440:	00024800 	andeq	r4, r2, r0, lsl #16
     444:	59000100 	stmdbpl	r0, {r8}
     448:	000002a0 	andeq	r0, r0, r0, lsr #5
     44c:	000002ac 	andeq	r0, r0, ip, lsr #5
     450:	c0550001 	subsgt	r0, r5, r1
     454:	44000002 	strmi	r0, [r0], #-2
     458:	01000003 	tsteq	r0, r3
     45c:	037c5b00 	cmneq	ip, #0, 22
     460:	03840000 	orreq	r0, r4, #0
     464:	00010000 	andeq	r0, r1, r0
     468:	0003e859 	andeq	lr, r3, r9, asr r8
     46c:	00044000 	andeq	r4, r4, r0
     470:	5b000100 	blpl	878 <_init-0x7788>
     474:	0000047c 	andeq	r0, r0, ip, ror r4
     478:	0000048c 	andeq	r0, r0, ip, lsl #9
     47c:	b0540001 	subslt	r0, r4, r1
     480:	b8000004 	stmdalt	r0, {r2}
     484:	01000004 	tsteq	r0, r4
     488:	04c05900 	strbeq	r5, [r0], #2304	; 0x900
     48c:	04d00000 	ldrbeq	r0, [r0], #0
     490:	00010000 	andeq	r0, r1, r0
     494:	0000005b 	andeq	r0, r0, fp, asr r0
     498:	00000000 	andeq	r0, r0, r0
     49c:	0002ac00 	andeq	sl, r2, r0, lsl #24
     4a0:	00033400 	andeq	r3, r3, r0, lsl #8
     4a4:	54000100 	strpl	r0, [r0], #-256	; 0x100
     4a8:	000004c8 	andeq	r0, r0, r8, asr #9
     4ac:	000004d0 	ldrdeq	r0, [r0], -r0	; <UNPREDICTABLE>
     4b0:	00540001 	subseq	r0, r4, r1
     4b4:	00000000 	andeq	r0, r0, r0
     4b8:	28000000 	stmdacs	r0, {}	; <UNPREDICTABLE>
     4bc:	2c000001 	stccs	0, cr0, [r0], {1}
     4c0:	08000001 	stmdaeq	r0, {r0}
     4c4:	40007b00 	andmi	r7, r0, r0, lsl #22
     4c8:	21007524 	tstcs	r0, r4, lsr #10
     4cc:	00012c9f 	muleq	r1, pc, ip	; <UNPREDICTABLE>
     4d0:	00013000 	andeq	r3, r1, r0
     4d4:	53000100 	movwpl	r0, #256	; 0x100
     4d8:	00000288 	andeq	r0, r0, r8, lsl #5
     4dc:	0000028c 	andeq	r0, r0, ip, lsl #5
     4e0:	007b0008 	rsbseq	r0, fp, r8
     4e4:	00792440 	rsbseq	r2, r9, r0, asr #8
     4e8:	028c9f21 	addeq	r9, ip, #33, 30	; 0x84
     4ec:	02900000 	addseq	r0, r0, #0
     4f0:	00010000 	andeq	r0, r1, r0
     4f4:	00047c53 	andeq	r7, r4, r3, asr ip
     4f8:	0004a400 	andeq	sl, r4, r0, lsl #8
     4fc:	51000100 	mrspl	r0, (UNDEF: 16)
     500:	000004a4 	andeq	r0, r0, r4, lsr #9
     504:	000004a8 	andeq	r0, r0, r8, lsr #9
     508:	7f710003 	svcvc	0x00710003
     50c:	0004a89f 	muleq	r4, pc, r8	; <UNPREDICTABLE>
     510:	0004b000 	andeq	fp, r4, r0
     514:	53000100 	movwpl	r0, #256	; 0x100
	...
     520:	00000128 	andeq	r0, r0, r8, lsr #2
     524:	00000130 	andeq	r0, r0, r0, lsr r1
     528:	9f300002 	svcls	0x00300002
     52c:	000001d4 	ldrdeq	r0, [r0], -r4
     530:	000001e0 	andeq	r0, r0, r0, ror #3
     534:	9f310002 	svcls	0x00310002
     538:	0000037c 	andeq	r0, r0, ip, ror r3
     53c:	00000380 	andeq	r0, r0, r0, lsl #7
     540:	00730008 	rsbseq	r0, r3, r8
     544:	00742440 	rsbseq	r2, r4, r0, asr #8
     548:	03809f21 	orreq	r9, r0, #33, 30	; 0x84
     54c:	03840000 	orreq	r0, r4, #0
     550:	00010000 	andeq	r0, r1, r0
     554:	00000054 	andeq	r0, r0, r4, asr r0
     558:	00000000 	andeq	r0, r0, r0
     55c:	0002a000 	andeq	sl, r2, r0
     560:	0002a800 	andeq	sl, r2, r0, lsl #16
     564:	08000600 	stmdaeq	r0, {r9, sl}
     568:	1c007020 	stcne	0, cr7, [r0], {32}
     56c:	0002a89f 	muleq	r2, pc, r8	; <UNPREDICTABLE>
     570:	0002b000 	andeq	fp, r2, r0
     574:	5b000100 	blpl	97c <_init-0x7684>
     578:	000002b0 			; <UNDEFINED> instruction: 0x000002b0
     57c:	000002bc 			; <UNDEFINED> instruction: 0x000002bc
     580:	20080006 	andcs	r0, r8, r6
     584:	9f1c0070 	svcls	0x001c0070
     588:	000002bc 			; <UNDEFINED> instruction: 0x000002bc
     58c:	000002c7 	andeq	r0, r0, r7, asr #5
     590:	20080006 	andcs	r0, r8, r6
     594:	9f1c0073 	svcls	0x001c0073
     598:	00000384 	andeq	r0, r0, r4, lsl #7
     59c:	00000388 	andeq	r0, r0, r8, lsl #7
     5a0:	20080006 	andcs	r0, r8, r6
     5a4:	9f1c0070 	svcls	0x001c0070
     5a8:	00000388 	andeq	r0, r0, r8, lsl #7
     5ac:	00000398 	muleq	r0, r8, r3
     5b0:	98530001 	ldmdals	r3, {r0}^
     5b4:	a4000003 	strge	r0, [r0], #-3
     5b8:	06000003 	streq	r0, [r0], -r3
     5bc:	70200800 	eorvc	r0, r0, r0, lsl #16
     5c0:	a49f1c00 	ldrge	r1, [pc], #3072	; 5c8 <_init-0x7a38>
     5c4:	b0000003 	andlt	r0, r0, r3
     5c8:	06000004 	streq	r0, [r0], -r4
     5cc:	75200800 	strvc	r0, [r0, #-2048]!	; 0x800
     5d0:	b89f1c00 	ldmlt	pc, {sl, fp, ip}	; <UNPREDICTABLE>
     5d4:	c8000004 	stmdagt	r0, {r2}
     5d8:	06000004 	streq	r0, [r0], -r4
     5dc:	75200800 	strvc	r0, [r0, #-2048]!	; 0x800
     5e0:	009f1c00 	addseq	r1, pc, r0, lsl #24
     5e4:	00000000 	andeq	r0, r0, r0
     5e8:	60000000 	andvs	r0, r0, r0
     5ec:	84000000 	strhi	r0, [r0], #-0
     5f0:	01000000 	mrseq	r0, (UNDEF: 0)
     5f4:	01745000 	cmneq	r4, r0
     5f8:	01a40000 			; <UNDEFINED> instruction: 0x01a40000
     5fc:	00010000 	andeq	r0, r1, r0
     600:	0001c450 	andeq	ip, r1, r0, asr r4
     604:	0001e000 	andeq	lr, r1, r0
     608:	50000100 	andpl	r0, r0, r0, lsl #2
     60c:	000002a0 	andeq	r0, r0, r0, lsr #5
     610:	000002bc 			; <UNDEFINED> instruction: 0x000002bc
     614:	bc500001 	mrrclt	0, 0, r0, r0, cr1	; <UNPREDICTABLE>
     618:	c7000002 	strgt	r0, [r0, -r2]
     61c:	01000002 	tsteq	r0, r2
     620:	03845300 	orreq	r5, r4, #0, 6
     624:	03a40000 			; <UNDEFINED> instruction: 0x03a40000
     628:	00010000 	andeq	r0, r1, r0
     62c:	0003a450 	andeq	sl, r3, r0, asr r4
     630:	0004b000 	andeq	fp, r4, r0
     634:	55000100 	strpl	r0, [r0, #-256]	; 0x100
     638:	000004b8 			; <UNDEFINED> instruction: 0x000004b8
     63c:	000004c8 	andeq	r0, r0, r8, asr #9
     640:	00550001 	subseq	r0, r5, r1
     644:	00000000 	andeq	r0, r0, r0
     648:	7c000000 	stcvc	0, cr0, [r0], {-0}
     64c:	30000000 	andcc	r0, r0, r0
     650:	01000001 	tsteq	r0, r1
     654:	00005400 	andeq	r5, r0, r0, lsl #8
     658:	00000000 	andeq	r0, r0, r0
     65c:	00a00000 	adceq	r0, r0, r0
     660:	00f80000 	rscseq	r0, r8, r0
     664:	00010000 	andeq	r0, r1, r0
     668:	0000f85a 	andeq	pc, r0, sl, asr r8	; <UNPREDICTABLE>
     66c:	00011000 	andeq	r1, r1, r0
     670:	78000700 	stmdavc	r0, {r8, r9, sl}
     674:	40244000 	eormi	r4, r4, r0
     678:	00009f25 	andeq	r9, r0, r5, lsr #30
     67c:	00000000 	andeq	r0, r0, r0
     680:	00a00000 	adceq	r0, r0, r0
     684:	00bc0000 	adcseq	r0, ip, r0
     688:	00010000 	andeq	r0, r1, r0
     68c:	0000bc5b 	andeq	fp, r0, fp, asr ip
     690:	0000c800 	andeq	ip, r0, r0, lsl #16
     694:	53000100 	movwpl	r0, #256	; 0x100
     698:	000000c8 	andeq	r0, r0, r8, asr #1
     69c:	000000d0 	ldrdeq	r0, [r0], -r0	; <UNPREDICTABLE>
     6a0:	d45b0001 	ldrble	r0, [fp], #-1
     6a4:	30000000 	andcc	r0, r0, r0
     6a8:	01000001 	tsteq	r0, r1
     6ac:	00005b00 	andeq	r5, r0, r0, lsl #22
     6b0:	00000000 	andeq	r0, r0, r0
     6b4:	00ec0000 	rsceq	r0, ip, r0
     6b8:	00f00000 	rscseq	r0, r0, r0
     6bc:	00010000 	andeq	r0, r1, r0
     6c0:	0000f050 	andeq	pc, r0, r0, asr r0	; <UNPREDICTABLE>
     6c4:	00011400 	andeq	r1, r1, r0, lsl #8
     6c8:	55000100 	strpl	r0, [r0, #-256]	; 0x100
     6cc:	00000114 	andeq	r0, r0, r4, lsl r1
     6d0:	00000128 	andeq	r0, r0, r8, lsr #2
     6d4:	28530001 	ldmdacs	r3, {r0}^
     6d8:	30000001 	andcc	r0, r0, r1
     6dc:	01000001 	tsteq	r0, r1
     6e0:	00005500 	andeq	r5, r0, r0, lsl #10
     6e4:	00000000 	andeq	r0, r0, r0
     6e8:	00a00000 	adceq	r0, r0, r0
     6ec:	00ac0000 	adceq	r0, ip, r0
     6f0:	00060000 	andeq	r0, r6, r0
     6f4:	00740079 	rsbseq	r0, r4, r9, ror r0
     6f8:	00ac9f1d 	adceq	r9, ip, sp, lsl pc
     6fc:	00b80000 	adcseq	r0, r8, r0
     700:	00010000 	andeq	r0, r1, r0
     704:	0000d451 	andeq	sp, r0, r1, asr r4
     708:	0000d800 	andeq	sp, r0, r0, lsl #16
     70c:	51000100 	mrspl	r0, (UNDEF: 16)
     710:	000000d8 	ldrdeq	r0, [r0], -r8
     714:	00000130 	andeq	r0, r0, r0, lsr r1
     718:	00590001 	subseq	r0, r9, r1
     71c:	00000000 	andeq	r0, r0, r0
     720:	d8000000 	stmdale	r0, {}	; <UNPREDICTABLE>
     724:	04000000 	streq	r0, [r0], #-0
     728:	06000001 	streq	r0, [r0], -r1
     72c:	74007900 	strvc	r7, [r0], #-2304	; 0x900
     730:	049f1d00 	ldreq	r1, [pc], #3328	; 738 <_init-0x78c8>
     734:	14000001 	strne	r0, [r0], #-1
     738:	01000001 	tsteq	r0, r1
     73c:	00005100 	andeq	r5, r0, r0, lsl #2
     740:	00000000 	andeq	r0, r0, r0
     744:	00a40000 	adceq	r0, r4, r0
     748:	00dc0000 	sbcseq	r0, ip, r0
     74c:	00010000 	andeq	r0, r1, r0
     750:	0000f850 	andeq	pc, r0, r0, asr r8	; <UNPREDICTABLE>
     754:	00013000 	andeq	r3, r1, r0
     758:	5a000100 	bpl	b60 <_init-0x74a0>
	...
     764:	000001e0 	andeq	r0, r0, r0, ror #3
     768:	00000290 	muleq	r0, r0, r2
     76c:	b0550001 	subslt	r0, r5, r1
     770:	b8000004 	stmdalt	r0, {r2}
     774:	01000004 	tsteq	r0, r4
     778:	00005500 	andeq	r5, r0, r0, lsl #10
     77c:	00000000 	andeq	r0, r0, r0
     780:	01e00000 	mvneq	r0, r0
     784:	02580000 	subseq	r0, r8, #0
     788:	00010000 	andeq	r0, r1, r0
     78c:	0004b05a 	andeq	fp, r4, sl, asr r0
     790:	0004b800 	andeq	fp, r4, r0, lsl #16
     794:	5a000100 	bpl	b9c <_init-0x7464>
	...
     7a0:	000001f4 	strdeq	r0, [r0], -r4
     7a4:	000001f8 	strdeq	r0, [r0], -r8
     7a8:	f8500001 			; <UNDEFINED> instruction: 0xf8500001
     7ac:	18000001 	stmdane	r0, {r0}
     7b0:	01000002 	tsteq	r0, r2
     7b4:	02185b00 	andseq	r5, r8, #0, 22
     7b8:	02240000 	eoreq	r0, r4, #0
     7bc:	00010000 	andeq	r0, r1, r0
     7c0:	00022453 	andeq	r2, r2, r3, asr r4
     7c4:	00029000 	andeq	r9, r2, r0
     7c8:	5b000100 	blpl	bd0 <_init-0x7430>
	...
     7d4:	00000248 	andeq	r0, r0, r8, asr #4
     7d8:	00000250 	andeq	r0, r0, r0, asr r2
     7dc:	50500001 	subspl	r0, r0, r1
     7e0:	74000002 	strvc	r0, [r0], #-2
     7e4:	01000002 	tsteq	r0, r2
     7e8:	02745900 	rsbseq	r5, r4, #0, 18
     7ec:	02880000 	addeq	r0, r8, #0
     7f0:	00010000 	andeq	r0, r1, r0
     7f4:	00028853 	andeq	r8, r2, r3, asr r8
     7f8:	00029000 	andeq	r9, r2, r0
     7fc:	59000100 	stmdbpl	r0, {r8}
	...
     808:	000001e0 	andeq	r0, r0, r0, ror #3
     80c:	00000208 	andeq	r0, r0, r8, lsl #4
     810:	00790006 	rsbseq	r0, r9, r6
     814:	9f1d0075 	svcls	0x001d0075
     818:	00000208 	andeq	r0, r0, r8, lsl #4
     81c:	00000214 	andeq	r0, r0, r4, lsl r2
     820:	2c510001 	mrrccs	0, 0, r0, r1, cr1
     824:	30000002 	andcc	r0, r0, r2
     828:	01000002 	tsteq	r0, r2
     82c:	02305100 	eorseq	r5, r0, #0, 2
     830:	023f0000 	eorseq	r0, pc, #0
     834:	00010000 	andeq	r0, r1, r0
     838:	00024452 	andeq	r4, r2, r2, asr r4
     83c:	00025300 	andeq	r5, r2, r0, lsl #6
     840:	52000100 	andpl	r0, r0, #0, 2
	...
     84c:	00000230 	andeq	r0, r0, r0, lsr r2
     850:	0000023f 	andeq	r0, r0, pc, lsr r2
     854:	00720006 	rsbseq	r0, r2, r6
     858:	9f1d0075 	svcls	0x001d0075
     85c:	00000244 	andeq	r0, r0, r4, asr #4
     860:	00000253 	andeq	r0, r0, r3, asr r2
     864:	00720006 	rsbseq	r0, r2, r6
     868:	9f1d0075 	svcls	0x001d0075
     86c:	00000264 	andeq	r0, r0, r4, ror #4
     870:	00000274 	andeq	r0, r0, r4, ror r2
     874:	00510001 	subseq	r0, r1, r1
	...
     880:	34000002 	strcc	r0, [r0], #-2
     884:	01000002 	tsteq	r0, r2
     888:	02585000 	subseq	r5, r8, #0
     88c:	02900000 	addseq	r0, r0, #0
     890:	00010000 	andeq	r0, r1, r0
     894:	0004b05a 	andeq	fp, r4, sl, asr r0
     898:	0004b800 	andeq	fp, r4, r0, lsl #16
     89c:	50000100 	andpl	r0, r0, r0, lsl #2
	...
     8a8:	000002c4 	andeq	r0, r0, r4, asr #5
     8ac:	000002c7 	andeq	r0, r0, r7, asr #5
     8b0:	c7510001 	ldrbgt	r0, [r1, -r1]
     8b4:	84000002 	strhi	r0, [r0], #-2
     8b8:	01000003 	tsteq	r0, r3
     8bc:	04c85500 	strbeq	r5, [r8], #1280	; 0x500
     8c0:	04d00000 	ldrbeq	r0, [r0], #0
     8c4:	00010000 	andeq	r0, r1, r0
     8c8:	00000055 	andeq	r0, r0, r5, asr r0
     8cc:	00000000 	andeq	r0, r0, r0
     8d0:	0002e800 	andeq	lr, r2, r0, lsl #16
     8d4:	00038400 	andeq	r8, r3, r0, lsl #8
     8d8:	5a000100 	bpl	ce0 <_init-0x7320>
     8dc:	000004c8 	andeq	r0, r0, r8, asr #9
     8e0:	000004d0 	ldrdeq	r0, [r0], -r0	; <UNPREDICTABLE>
     8e4:	005a0001 	subseq	r0, sl, r1
     8e8:	00000000 	andeq	r0, r0, r0
     8ec:	04000000 	streq	r0, [r0], #-0
     8f0:	10000003 	andne	r0, r0, r3
     8f4:	01000003 	tsteq	r0, r3
     8f8:	03105200 	tsteq	r0, #0, 4
     8fc:	032b0000 	teqeq	fp, #0
     900:	00010000 	andeq	r0, r1, r0
     904:	00035453 	andeq	r5, r3, r3, asr r4
     908:	00038400 	andeq	r8, r3, r0, lsl #8
     90c:	53000100 	movwpl	r0, #256	; 0x100
	...
     918:	00000334 	andeq	r0, r0, r4, lsr r3
     91c:	00000338 	andeq	r0, r0, r8, lsr r3
     920:	38500001 	ldmdacc	r0, {r0}^
     924:	60000003 	andvs	r0, r0, r3
     928:	01000003 	tsteq	r0, r3
     92c:	03605400 	cmneq	r0, #0, 8
     930:	036c0000 	cmneq	ip, #0
     934:	00010000 	andeq	r0, r1, r0
     938:	00036c52 	andeq	r6, r3, r2, asr ip
     93c:	00037400 	andeq	r7, r3, r0, lsl #8
     940:	54000100 	strpl	r0, [r0], #-256	; 0x100
     944:	00000378 	andeq	r0, r0, r8, ror r3
     948:	00000380 	andeq	r0, r0, r0, lsl #7
     94c:	00540001 	subseq	r0, r4, r1
     950:	00000000 	andeq	r0, r0, r0
     954:	e8000000 	stmda	r0, {}	; <UNPREDICTABLE>
     958:	f4000002 	vst4.8	{d0-d3}, [r0], r2
     95c:	06000002 	streq	r0, [r0], -r2
     960:	75007400 	strvc	r7, [r0, #-1024]	; 0x400
     964:	f49f1d00 			; <UNDEFINED> instruction: 0xf49f1d00
     968:	00000002 	andeq	r0, r0, r2
     96c:	01000003 	tsteq	r0, r3
     970:	03185100 	tsteq	r8, #0, 2
     974:	031c0000 	tsteq	ip, #0
     978:	00010000 	andeq	r0, r1, r0
     97c:	00031c51 	andeq	r1, r3, r1, asr ip
     980:	00034000 	andeq	r4, r3, r0
     984:	59000100 	stmdbpl	r0, {r8}
	...
     990:	0000031c 	andeq	r0, r0, ip, lsl r3
     994:	00000340 	andeq	r0, r0, r0, asr #6
     998:	00790006 	rsbseq	r0, r9, r6
     99c:	9f1d0075 	svcls	0x001d0075
     9a0:	0000034c 	andeq	r0, r0, ip, asr #6
     9a4:	0000035c 	andeq	r0, r0, ip, asr r3
     9a8:	78510001 	ldmdavc	r1, {r0}^
     9ac:	7c000003 	stcvc	0, cr0, [r0], {3}
     9b0:	01000003 	tsteq	r0, r3
     9b4:	037c5100 	cmneq	ip, #0, 2
     9b8:	03840000 	orreq	r0, r4, #0
     9bc:	00010000 	andeq	r0, r1, r0
     9c0:	00000059 	andeq	r0, r0, r9, asr r0
     9c4:	00000000 	andeq	r0, r0, r0
     9c8:	0002ec00 	andeq	lr, r2, r0, lsl #24
     9cc:	00032000 	andeq	r2, r3, r0
     9d0:	50000100 	andpl	r0, r0, r0, lsl #2
     9d4:	00000340 	andeq	r0, r0, r0, asr #6
     9d8:	0000037c 	andeq	r0, r0, ip, ror r3
     9dc:	c8590001 	ldmdagt	r9, {r0}^
     9e0:	d0000004 	andle	r0, r0, r4
     9e4:	01000004 	tsteq	r0, r4
     9e8:	00005000 	andeq	r5, r0, r0
     9ec:	00000000 	andeq	r0, r0, r0
     9f0:	047c0000 	ldrbteq	r0, [ip], #-0
     9f4:	04a40000 	strteq	r0, [r4], #0
     9f8:	00010000 	andeq	r0, r1, r0
     9fc:	00000053 	andeq	r0, r0, r3, asr r0
     a00:	00000000 	andeq	r0, r0, r0
     a04:	00047c00 	andeq	r7, r4, r0, lsl #24
     a08:	0004a400 	andeq	sl, r4, r0, lsl #8
     a0c:	52000100 	andpl	r0, r0, #0, 2
	...
     a18:	000003e8 	andeq	r0, r0, r8, ror #7
     a1c:	000004b0 			; <UNDEFINED> instruction: 0x000004b0
     a20:	b8590001 	ldmdalt	r9, {r0}^
     a24:	c8000004 	stmdagt	r0, {r2}
     a28:	01000004 	tsteq	r0, r4
     a2c:	00005900 	andeq	r5, r0, r0, lsl #18
     a30:	00000000 	andeq	r0, r0, r0
     a34:	03e80000 	mvneq	r0, #0
     a38:	043c0000 	ldrteq	r0, [ip], #-0
     a3c:	00010000 	andeq	r0, r1, r0
     a40:	00043c54 	andeq	r3, r4, r4, asr ip
     a44:	0004b000 	andeq	fp, r4, r0
     a48:	78000700 	stmdavc	r0, {r8, r9, sl}
     a4c:	40244000 	eormi	r4, r4, r0
     a50:	04b89f25 	ldrteq	r9, [r8], #3877	; 0xf25
     a54:	04c00000 	strbeq	r0, [r0], #0
     a58:	00070000 	andeq	r0, r7, r0
     a5c:	24400078 	strbcs	r0, [r0], #-120	; 0x78
     a60:	c09f2540 	addsgt	r2, pc, r0, asr #10
     a64:	c8000004 	stmdagt	r0, {r2}
     a68:	01000004 	tsteq	r0, r4
     a6c:	00005400 	andeq	r5, r0, r0, lsl #8
     a70:	00000000 	andeq	r0, r0, r0
     a74:	03e80000 	mvneq	r0, #0
     a78:	03f40000 	mvnseq	r0, #0
     a7c:	00010000 	andeq	r0, r1, r0
     a80:	0003f453 	andeq	pc, r3, r3, asr r4	; <UNPREDICTABLE>
     a84:	00040000 	andeq	r0, r4, r0
     a88:	52000100 	andpl	r0, r0, #0, 2
     a8c:	00000400 	andeq	r0, r0, r0, lsl #8
     a90:	0000041b 	andeq	r0, r0, fp, lsl r4
     a94:	50530001 	subspl	r0, r3, r1
     a98:	a0000004 	andge	r0, r0, r4
     a9c:	01000004 	tsteq	r0, r4
     aa0:	04b85300 	ldrteq	r5, [r8], #768	; 0x300
     aa4:	04c00000 	strbeq	r0, [r0], #0
     aa8:	00010000 	andeq	r0, r1, r0
     aac:	00000053 	andeq	r0, r0, r3, asr r0
     ab0:	00000000 	andeq	r0, r0, r0
     ab4:	00042400 	andeq	r2, r4, r0, lsl #8
     ab8:	00042c00 	andeq	r2, r4, r0, lsl #24
     abc:	50000100 	andpl	r0, r0, r0, lsl #2
     ac0:	0000042c 	andeq	r0, r0, ip, lsr #8
     ac4:	00000433 	andeq	r0, r0, r3, lsr r4
     ac8:	38520001 	ldmdacc	r2, {r0}^
     acc:	5c000004 	stcpl	0, cr0, [r0], {4}
     ad0:	01000004 	tsteq	r0, r4
     ad4:	045c5200 	ldrbeq	r5, [ip], #-512	; 0x200
     ad8:	04680000 	strbteq	r0, [r8], #-0
     adc:	00010000 	andeq	r0, r1, r0
     ae0:	00046851 	andeq	r6, r4, r1, asr r8
     ae4:	00047800 	andeq	r7, r4, r0, lsl #16
     ae8:	52000100 	andpl	r0, r0, #0, 2
	...
     af4:	000003e8 	andeq	r0, r0, r8, ror #7
     af8:	000003f0 	strdeq	r0, [r0], -r0	; <UNPREDICTABLE>
     afc:	08510001 	ldmdaeq	r1, {r0}^
     b00:	0c000004 	stceq	0, cr0, [r0], {4}
     b04:	01000004 	tsteq	r0, r4
     b08:	040c5100 	streq	r5, [ip], #-256	; 0x100
     b0c:	041b0000 	ldreq	r0, [fp], #-0
     b10:	00010000 	andeq	r0, r1, r0
     b14:	0004205c 	andeq	r2, r4, ip, asr r0
     b18:	00043300 	andeq	r3, r4, r0, lsl #6
     b1c:	5c000100 	stfpls	f0, [r0], {-0}
	...
     b28:	0000040c 	andeq	r0, r0, ip, lsl #8
     b2c:	0000041b 	andeq	r0, r0, fp, lsl r4
     b30:	007c0006 	rsbseq	r0, ip, r6
     b34:	9f1d0079 	svcls	0x001d0079
     b38:	00000420 	andeq	r0, r0, r0, lsr #8
     b3c:	00000433 	andeq	r0, r0, r3, lsr r4
     b40:	007c0006 	rsbseq	r0, ip, r6
     b44:	9f1d0079 	svcls	0x001d0079
     b48:	00000448 	andeq	r0, r0, r8, asr #8
     b4c:	00000458 	andeq	r0, r0, r8, asr r4
     b50:	585c0001 	ldmdapl	ip, {r0}^
     b54:	5c000004 	stcpl	0, cr0, [r0], {4}
     b58:	0a000004 	beq	b70 <_init-0x7490>
     b5c:	40007100 	andmi	r7, r0, r0, lsl #2
     b60:	40007b24 	andmi	r7, r0, r4, lsr #22
     b64:	709f2125 	addsvc	r2, pc, r5, lsr #2
     b68:	7c000004 	stcvc	0, cr0, [r0], {4}
     b6c:	01000004 	tsteq	r0, r4
     b70:	047c5c00 	ldrbteq	r5, [ip], #-3072	; 0xc00
     b74:	048c0000 	streq	r0, [ip], #0
     b78:	00010000 	andeq	r0, r1, r0
     b7c:	00000054 	andeq	r0, r0, r4, asr r0
     b80:	00000000 	andeq	r0, r0, r0
     b84:	0003e800 	andeq	lr, r3, r0, lsl #16
     b88:	00041000 	andeq	r1, r4, r0
     b8c:	50000100 	andpl	r0, r0, r0, lsl #2
     b90:	0000043c 	andeq	r0, r0, ip, lsr r4
     b94:	0000047c 	andeq	r0, r0, ip, ror r4
     b98:	b8540001 	ldmdalt	r4, {r0}^
     b9c:	c0000004 	andgt	r0, r0, r4
     ba0:	01000004 	tsteq	r0, r4
     ba4:	04c05400 	strbeq	r5, [r0], #1024	; 0x400
     ba8:	04c80000 	strbeq	r0, [r8], #0
     bac:	00010000 	andeq	r0, r1, r0
     bb0:	00000050 	andeq	r0, r0, r0, asr r0
     bb4:	00000000 	andeq	r0, r0, r0
     bb8:	00047c00 	andeq	r7, r4, r0, lsl #24
     bbc:	0004b000 	andeq	fp, r4, r0
     bc0:	52000600 	andpl	r0, r0, #0, 12
     bc4:	93530493 	cmpls	r3, #-1828716544	; 0x93000000
     bc8:	00000004 	andeq	r0, r0, r4
	...
     bd4:	00003800 	andeq	r3, r0, r0, lsl #16
     bd8:	50000600 	andpl	r0, r0, r0, lsl #12
     bdc:	93510493 	cmpls	r1, #-1828716544	; 0x93000000
     be0:	00003804 	andeq	r3, r0, r4, lsl #16
     be4:	00011800 	andeq	r1, r1, r0, lsl #16
     be8:	f3000600 	vmax.u8	d0, d0, d0
     bec:	2500f503 	strcs	pc, [r0, #-1283]	; 0x503
     bf0:	0001189f 	muleq	r1, pc, r8	; <UNPREDICTABLE>
     bf4:	00012400 	andeq	r2, r1, r0, lsl #8
     bf8:	50000600 	andpl	r0, r0, r0, lsl #12
     bfc:	93510493 	cmpls	r1, #-1828716544	; 0x93000000
     c00:	00012404 	andeq	r2, r1, r4, lsl #8
     c04:	00015800 	andeq	r5, r1, r0, lsl #16
     c08:	f3000600 	vmax.u8	d0, d0, d0
     c0c:	2500f503 	strcs	pc, [r0, #-1283]	; 0x503
     c10:	0001589f 	muleq	r1, pc, r8	; <UNPREDICTABLE>
     c14:	00016800 	andeq	r6, r1, r0, lsl #16
     c18:	50000600 	andpl	r0, r0, r0, lsl #12
     c1c:	93510493 	cmpls	r1, #-1828716544	; 0x93000000
     c20:	00016804 	andeq	r6, r1, r4, lsl #16
     c24:	00047000 	andeq	r7, r4, r0
     c28:	f3000600 	vmax.u8	d0, d0, d0
     c2c:	2500f503 	strcs	pc, [r0, #-1283]	; 0x503
     c30:	0000009f 	muleq	r0, pc, r0	; <UNPREDICTABLE>
	...
     c3c:	00003b00 	andeq	r3, r0, r0, lsl #22
     c40:	52000600 	andpl	r0, r0, #0, 12
     c44:	93530493 	cmpls	r3, #-1828716544	; 0x93000000
     c48:	00003b04 	andeq	r3, r0, r4, lsl #22
     c4c:	00011800 	andeq	r1, r1, r0, lsl #16
     c50:	f3000600 	vmax.u8	d0, d0, d0
     c54:	2502f503 	strcs	pc, [r2, #-1283]	; 0x503
     c58:	0001189f 	muleq	r1, pc, r8	; <UNPREDICTABLE>
     c5c:	00012f00 	andeq	r2, r1, r0, lsl #30
     c60:	52000600 	andpl	r0, r0, #0, 12
     c64:	93530493 	cmpls	r3, #-1828716544	; 0x93000000
     c68:	00012f04 	andeq	r2, r1, r4, lsl #30
     c6c:	00015800 	andeq	r5, r1, r0, lsl #16
     c70:	f3000600 	vmax.u8	d0, d0, d0
     c74:	2502f503 	strcs	pc, [r2, #-1283]	; 0x503
     c78:	0001589f 	muleq	r1, pc, r8	; <UNPREDICTABLE>
     c7c:	00016b00 	andeq	r6, r1, r0, lsl #22
     c80:	52000600 	andpl	r0, r0, #0, 12
     c84:	93530493 	cmpls	r3, #-1828716544	; 0x93000000
     c88:	00016b04 	andeq	r6, r1, r4, lsl #22
     c8c:	00047000 	andeq	r7, r4, r0
     c90:	f3000600 	vmax.u8	d0, d0, d0
     c94:	2502f503 	strcs	pc, [r2, #-1283]	; 0x503
     c98:	0000009f 	muleq	r0, pc, r0	; <UNPREDICTABLE>
     c9c:	00000000 	andeq	r0, r0, r0
     ca0:	00001c00 	andeq	r1, r0, r0, lsl #24
     ca4:	00003b00 	andeq	r3, r0, r0, lsl #22
     ca8:	52000600 	andpl	r0, r0, #0, 12
     cac:	93530493 	cmpls	r3, #-1828716544	; 0x93000000
     cb0:	00003b04 	andeq	r3, r0, r4, lsl #22
     cb4:	00004c00 	andeq	r4, r0, r0, lsl #24
     cb8:	54000600 	strpl	r0, [r0], #-1536	; 0x600
     cbc:	93570493 	cmpls	r7, #-1828716544	; 0x93000000
     cc0:	00004c04 	andeq	r4, r0, r4, lsl #24
     cc4:	00006c00 	andeq	r6, r0, r0, lsl #24
     cc8:	56000600 	strpl	r0, [r0], -r0, lsl #12
     ccc:	93570493 	cmpls	r7, #-1828716544	; 0x93000000
     cd0:	00011804 	andeq	r1, r1, r4, lsl #16
     cd4:	00012f00 	andeq	r2, r1, r0, lsl #30
     cd8:	52000600 	andpl	r0, r0, #0, 12
     cdc:	93530493 	cmpls	r3, #-1828716544	; 0x93000000
     ce0:	00012f04 	andeq	r2, r1, r4, lsl #30
     ce4:	00015800 	andeq	r5, r1, r0, lsl #16
     ce8:	54000600 	strpl	r0, [r0], #-1536	; 0x600
     cec:	93570493 	cmpls	r7, #-1828716544	; 0x93000000
     cf0:	00015804 	andeq	r5, r1, r4, lsl #16
     cf4:	00016b00 	andeq	r6, r1, r0, lsl #22
     cf8:	52000600 	andpl	r0, r0, #0, 12
     cfc:	93530493 	cmpls	r3, #-1828716544	; 0x93000000
     d00:	00016b04 	andeq	r6, r1, r4, lsl #22
     d04:	00017000 	andeq	r7, r1, r0
     d08:	54000600 	strpl	r0, [r0], #-1536	; 0x600
     d0c:	93570493 	cmpls	r7, #-1828716544	; 0x93000000
     d10:	00017004 	andeq	r7, r1, r4
     d14:	00019000 	andeq	r9, r1, r0
     d18:	56000600 	strpl	r0, [r0], -r0, lsl #12
     d1c:	93570493 	cmpls	r7, #-1828716544	; 0x93000000
     d20:	00024404 	andeq	r4, r2, r4, lsl #8
     d24:	00025000 	andeq	r5, r2, r0
     d28:	54000600 	strpl	r0, [r0], #-1536	; 0x600
     d2c:	93570493 	cmpls	r7, #-1828716544	; 0x93000000
     d30:	00035404 	andeq	r5, r3, r4, lsl #8
     d34:	00036000 	andeq	r6, r3, r0
     d38:	56000600 	strpl	r0, [r0], -r0, lsl #12
     d3c:	93570493 	cmpls	r7, #-1828716544	; 0x93000000
     d40:	00000004 	andeq	r0, r0, r4
     d44:	00000000 	andeq	r0, r0, r0
     d48:	00001800 	andeq	r1, r0, r0, lsl #16
     d4c:	00003800 	andeq	r3, r0, r0, lsl #16
     d50:	50000600 	andpl	r0, r0, r0, lsl #12
     d54:	93510493 	cmpls	r1, #-1828716544	; 0x93000000
     d58:	00003804 	andeq	r3, r0, r4, lsl #16
     d5c:	00003b00 	andeq	r3, r0, r0, lsl #22
     d60:	58000600 	stmdapl	r0, {r9, sl}
     d64:	93510493 	cmpls	r1, #-1828716544	; 0x93000000
     d68:	00003b04 	andeq	r3, r0, r4, lsl #22
     d6c:	00005400 	andeq	r5, r0, r0, lsl #8
     d70:	58000600 	stmdapl	r0, {r9, sl}
     d74:	93550493 	cmpls	r5, #-1828716544	; 0x93000000
     d78:	00011804 	andeq	r1, r1, r4, lsl #16
     d7c:	00012400 	andeq	r2, r1, r0, lsl #8
     d80:	50000600 	andpl	r0, r0, r0, lsl #12
     d84:	93510493 	cmpls	r1, #-1828716544	; 0x93000000
     d88:	00012404 	andeq	r2, r1, r4, lsl #8
     d8c:	00012f00 	andeq	r2, r1, r0, lsl #30
     d90:	58000600 	stmdapl	r0, {r9, sl}
     d94:	93510493 	cmpls	r1, #-1828716544	; 0x93000000
     d98:	00012f04 	andeq	r2, r1, r4, lsl #30
     d9c:	00015800 	andeq	r5, r1, r0, lsl #16
     da0:	58000600 	stmdapl	r0, {r9, sl}
     da4:	93550493 	cmpls	r5, #-1828716544	; 0x93000000
     da8:	00015804 	andeq	r5, r1, r4, lsl #16
     dac:	00016400 	andeq	r6, r1, r0, lsl #8
     db0:	50000600 	andpl	r0, r0, r0, lsl #12
     db4:	93510493 	cmpls	r1, #-1828716544	; 0x93000000
     db8:	00016404 	andeq	r6, r1, r4, lsl #8
     dbc:	00016800 	andeq	r6, r1, r0, lsl #16
     dc0:	50000600 	andpl	r0, r0, r0, lsl #12
     dc4:	93550493 	cmpls	r5, #-1828716544	; 0x93000000
     dc8:	00016804 	andeq	r6, r1, r4, lsl #16
     dcc:	00018800 	andeq	r8, r1, r0, lsl #16
     dd0:	58000600 	stmdapl	r0, {r9, sl}
     dd4:	93550493 	cmpls	r5, #-1828716544	; 0x93000000
     dd8:	00024404 	andeq	r4, r2, r4, lsl #8
     ddc:	00026800 	andeq	r6, r2, r0, lsl #16
     de0:	58000600 	stmdapl	r0, {r9, sl}
     de4:	93550493 	cmpls	r5, #-1828716544	; 0x93000000
     de8:	00026804 	andeq	r6, r2, r4, lsl #16
     dec:	00028800 	andeq	r8, r2, r0, lsl #16
     df0:	58000600 	stmdapl	r0, {r9, sl}
     df4:	935a0493 	cmpls	sl, #-1828716544	; 0x93000000
     df8:	00035404 	andeq	r5, r3, r4, lsl #8
     dfc:	00038400 	andeq	r8, r3, r0, lsl #8
     e00:	58000600 	stmdapl	r0, {r9, sl}
     e04:	93550493 	cmpls	r5, #-1828716544	; 0x93000000
     e08:	00000004 	andeq	r0, r0, r4
     e0c:	00000000 	andeq	r0, r0, r0
     e10:	00002000 	andeq	r2, r0, r0
     e14:	00003b00 	andeq	r3, r0, r0, lsl #22
     e18:	52000100 	andpl	r0, r0, #0, 2
     e1c:	0000003b 	andeq	r0, r0, fp, lsr r0
     e20:	00000040 	andeq	r0, r0, r0, asr #32
     e24:	40540001 	subsmi	r0, r4, r1
     e28:	4c000000 	stcmi	0, cr0, [r0], {-0}
     e2c:	06000000 	streq	r0, [r0], -r0
     e30:	70007400 	andvc	r7, r0, r0, lsl #8
     e34:	4c9f2400 	cfldrsmi	mvf2, [pc], {0}
     e38:	60000000 	andvs	r0, r0, r0
     e3c:	06000000 	streq	r0, [r0], -r0
     e40:	70007600 	andvc	r7, r0, r0, lsl #12
     e44:	189f2400 	ldmne	pc, {sl, sp}	; <UNPREDICTABLE>
     e48:	2f000001 	svccs	0x00000001
     e4c:	01000001 	tsteq	r0, r1
     e50:	012f5200 	teqeq	pc, r0, lsl #4
     e54:	01580000 	cmpeq	r8, r0
     e58:	00010000 	andeq	r0, r1, r0
     e5c:	00015854 	andeq	r5, r1, r4, asr r8
     e60:	00016b00 	andeq	r6, r1, r0, lsl #22
     e64:	52000100 	andpl	r0, r0, #0, 2
     e68:	0000016b 	andeq	r0, r0, fp, ror #2
     e6c:	00000170 	andeq	r0, r0, r0, ror r1
     e70:	44540001 	ldrbmi	r0, [r4], #-1
     e74:	5c000002 	stcpl	0, cr0, [r0], {2}
     e78:	01000002 	tsteq	r0, r2
     e7c:	02a05400 	adceq	r5, r0, #0, 8
     e80:	03280000 	teqeq	r8, #0
     e84:	00010000 	andeq	r0, r1, r0
     e88:	00035456 	andeq	r5, r3, r6, asr r4
     e8c:	00035800 	andeq	r5, r3, r0, lsl #16
     e90:	74000600 	strvc	r0, [r0], #-1536	; 0x600
     e94:	24007000 	strcs	r7, [r0], #-0
     e98:	0003589f 	muleq	r3, pc, r8	; <UNPREDICTABLE>
     e9c:	00042800 	andeq	r2, r4, r0, lsl #16
     ea0:	54000100 	strpl	r0, [r0], #-256	; 0x100
     ea4:	00000440 	andeq	r0, r0, r0, asr #8
     ea8:	00000468 	andeq	r0, r0, r8, ror #8
     eac:	68560001 	ldmdavs	r6, {r0}^
     eb0:	70000004 	andvc	r0, r0, r4
     eb4:	01000004 	tsteq	r0, r4
     eb8:	00005400 	andeq	r5, r0, r0, lsl #8
     ebc:	00000000 	andeq	r0, r0, r0
     ec0:	00200000 	eoreq	r0, r0, r0
     ec4:	003b0000 	eorseq	r0, fp, r0
     ec8:	00010000 	andeq	r0, r1, r0
     ecc:	00003b53 	andeq	r3, r0, r3, asr fp
     ed0:	00006c00 	andeq	r6, r0, r0, lsl #24
     ed4:	57000100 	strpl	r0, [r0, -r0, lsl #2]
     ed8:	00000118 	andeq	r0, r0, r8, lsl r1
     edc:	0000012f 	andeq	r0, r0, pc, lsr #2
     ee0:	2f530001 	svccs	0x00530001
     ee4:	58000001 	stmdapl	r0, {r0}
     ee8:	01000001 	tsteq	r0, r1
     eec:	01585700 	cmpeq	r8, r0, lsl #14
     ef0:	016b0000 	cmneq	fp, r0
     ef4:	00010000 	andeq	r0, r1, r0
     ef8:	00016b53 	andeq	r6, r1, r3, asr fp
     efc:	00019000 	andeq	r9, r1, r0
     f00:	57000100 	strpl	r0, [r0, -r0, lsl #2]
     f04:	00000244 	andeq	r0, r0, r4, asr #4
     f08:	00000350 	andeq	r0, r0, r0, asr r3
     f0c:	54570001 	ldrbpl	r0, [r7], #-1
     f10:	68000003 	stmdavs	r0, {r0, r1}
     f14:	01000003 	tsteq	r0, r3
     f18:	04405700 	strbeq	r5, [r0], #-1792	; 0x700
     f1c:	04680000 	strbteq	r0, [r8], #-0
     f20:	00010000 	andeq	r0, r1, r0
     f24:	00000057 	andeq	r0, r0, r7, asr r0
     f28:	00000000 	andeq	r0, r0, r0
     f2c:	00002400 	andeq	r2, r0, r0, lsl #8
     f30:	00003800 	andeq	r3, r0, r0, lsl #16
     f34:	50000100 	andpl	r0, r0, r0, lsl #2
     f38:	00000038 	andeq	r0, r0, r8, lsr r0
     f3c:	00000058 	andeq	r0, r0, r8, asr r0
     f40:	58580001 	ldmdapl	r8, {r0}^
     f44:	d8000000 	stmdale	r0, {}	; <UNPREDICTABLE>
     f48:	01000000 	mrseq	r0, (UNDEF: 0)
     f4c:	01185900 	tsteq	r8, r0, lsl #18
     f50:	01240000 	teqeq	r4, r0
     f54:	00010000 	andeq	r0, r1, r0
     f58:	00012450 	andeq	r2, r1, r0, asr r4
     f5c:	00015800 	andeq	r5, r1, r0, lsl #16
     f60:	58000100 	stmdapl	r0, {r8}
     f64:	00000158 	andeq	r0, r0, r8, asr r1
     f68:	00000168 	andeq	r0, r0, r8, ror #2
     f6c:	68500001 	ldmdavs	r0, {r0}^
     f70:	94000001 	strls	r0, [r0], #-1
     f74:	01000001 	tsteq	r0, r1
     f78:	01945800 	orrseq	r5, r4, r0, lsl #16
     f7c:	02080000 	andeq	r0, r8, #0
     f80:	00010000 	andeq	r0, r1, r0
     f84:	00024459 	andeq	r4, r2, r9, asr r4
     f88:	0002a000 	andeq	sl, r2, r0
     f8c:	58000100 	stmdapl	r0, {r8}
     f90:	000002a0 	andeq	r0, r0, r0, lsr #5
     f94:	00000350 	andeq	r0, r0, r0, asr r3
     f98:	00780006 	rsbseq	r0, r8, r6
     f9c:	9f240079 	svcls	0x00240079
     fa0:	00000354 	andeq	r0, r0, r4, asr r3
     fa4:	00000378 	andeq	r0, r0, r8, ror r3
     fa8:	78580001 	ldmdavc	r8, {r0}^
     fac:	28000003 	stmdacs	r0, {r0, r1}
     fb0:	01000004 	tsteq	r0, r4
     fb4:	04305900 	ldrteq	r5, [r0], #-2304	; 0x900
     fb8:	04380000 	ldrteq	r0, [r8], #-0
     fbc:	00010000 	andeq	r0, r1, r0
     fc0:	00044059 	andeq	r4, r4, r9, asr r0
     fc4:	00046800 	andeq	r6, r4, r0, lsl #16
     fc8:	78000600 	stmdavc	r0, {r9, sl}
     fcc:	24007900 	strcs	r7, [r0], #-2304	; 0x900
     fd0:	0004689f 	muleq	r4, pc, r8	; <UNPREDICTABLE>
     fd4:	00047000 	andeq	r7, r4, r0
     fd8:	59000100 	stmdbpl	r0, {r8}
	...
     fe4:	00000028 	andeq	r0, r0, r8, lsr #32
     fe8:	0000003b 	andeq	r0, r0, fp, lsr r0
     fec:	3b510001 	blcc	1440ff8 <_stack+0x13c0ff8>
     ff0:	50000000 	andpl	r0, r0, r0
     ff4:	01000000 	mrseq	r0, (UNDEF: 0)
     ff8:	00505500 	subseq	r5, r0, r0, lsl #10
     ffc:	00b40000 	adcseq	r0, r4, r0
    1000:	00010000 	andeq	r0, r1, r0
    1004:	0001185a 	andeq	r1, r1, sl, asr r8
    1008:	00012f00 	andeq	r2, r1, r0, lsl #30
    100c:	51000100 	mrspl	r0, (UNDEF: 16)
    1010:	0000012f 	andeq	r0, r0, pc, lsr #2
    1014:	00000158 	andeq	r0, r0, r8, asr r1
    1018:	58550001 	ldmdapl	r5, {r0}^
    101c:	64000001 	strvs	r0, [r0], #-1
    1020:	01000001 	tsteq	r0, r1
    1024:	01645100 	cmneq	r4, r0, lsl #2
    1028:	01f80000 	mvnseq	r0, r0
    102c:	00010000 	andeq	r0, r1, r0
    1030:	00024455 	andeq	r4, r2, r5, asr r4
    1034:	00026800 	andeq	r6, r2, r0, lsl #16
    1038:	55000100 	strpl	r0, [r0, #-256]	; 0x100
    103c:	00000268 	andeq	r0, r0, r8, ror #4
    1040:	00000288 	andeq	r0, r0, r8, lsl #5
    1044:	a05a0001 	subsge	r0, sl, r1
    1048:	ec000002 	stc	0, cr0, [r0], {2}
    104c:	01000002 	tsteq	r0, r2
    1050:	03185500 	tsteq	r8, #0, 10
    1054:	03500000 	cmpeq	r0, #0
    1058:	00010000 	andeq	r0, r1, r0
    105c:	0003545a 	andeq	r5, r3, sl, asr r4
    1060:	00037800 	andeq	r7, r3, r0, lsl #16
    1064:	55000100 	strpl	r0, [r0, #-256]	; 0x100
    1068:	00000378 	andeq	r0, r0, r8, ror r3
    106c:	000003ec 	andeq	r0, r0, ip, ror #7
    1070:	205b0001 	subscs	r0, fp, r1
    1074:	28000004 	stmdacs	r0, {r2}
    1078:	01000004 	tsteq	r0, r4
    107c:	04305500 	ldrteq	r5, [r0], #-1280	; 0x500
    1080:	04380000 	ldrteq	r0, [r8], #-0
    1084:	00010000 	andeq	r0, r1, r0
    1088:	00045455 	andeq	r5, r4, r5, asr r4
    108c:	00046800 	andeq	r6, r4, r0, lsl #16
    1090:	55000100 	strpl	r0, [r0, #-256]	; 0x100
    1094:	00000468 	andeq	r0, r0, r8, ror #8
    1098:	00000470 	andeq	r0, r0, r0, ror r4
    109c:	005b0001 	subseq	r0, fp, r1
    10a0:	00000000 	andeq	r0, r0, r0
    10a4:	60000000 	andvs	r0, r0, r0
    10a8:	dc000003 	stcle	0, cr0, [r0], {3}
    10ac:	01000003 	tsteq	r0, r3
    10b0:	04685600 	strbteq	r5, [r8], #-1536	; 0x600
    10b4:	04700000 	ldrbteq	r0, [r0], #-0
    10b8:	00010000 	andeq	r0, r1, r0
    10bc:	00000056 	andeq	r0, r0, r6, asr r0
    10c0:	00000000 	andeq	r0, r0, r0
    10c4:	00010000 	andeq	r0, r1, r0
    10c8:	00010400 	andeq	r0, r1, r0, lsl #8
    10cc:	77000800 	strvc	r0, [r0, -r0, lsl #16]
    10d0:	76244000 	strtvc	r4, [r4], -r0
    10d4:	049f2100 	ldreq	r2, [pc], #256	; 10dc <_init-0x6f24>
    10d8:	08000001 	stmdaeq	r0, {r0}
    10dc:	01000001 	tsteq	r0, r1
    10e0:	02305000 	eorseq	r5, r0, #0
    10e4:	02340000 	eorseq	r0, r4, #0
    10e8:	00080000 	andeq	r0, r8, r0
    10ec:	24400078 	strbcs	r0, [r0], #-120	; 0x78
    10f0:	9f210075 	svcls	0x00210075
    10f4:	00000318 	andeq	r0, r0, r8, lsl r3
    10f8:	0000033c 	andeq	r0, r0, ip, lsr r3
    10fc:	3c500001 	mrrccc	0, 0, r0, r0, cr1	; <UNPREDICTABLE>
    1100:	40000003 	andmi	r0, r0, r3
    1104:	03000003 	movweq	r0, #3
    1108:	9f7f7000 	svcls	0x007f7000
	...
    1114:	00000100 	andeq	r0, r0, r0, lsl #2
    1118:	00000108 	andeq	r0, r0, r8, lsl #2
    111c:	9f300002 	svcls	0x00300002
    1120:	00000188 	andeq	r0, r0, r8, lsl #3
    1124:	00000194 	muleq	r0, r4, r1
    1128:	9f310002 	svcls	0x00310002
    112c:	00000420 	andeq	r0, r0, r0, lsr #8
    1130:	00000424 	andeq	r0, r0, r4, lsr #8
    1134:	00780008 	rsbseq	r0, r8, r8
    1138:	00762440 	rsbseq	r2, r6, r0, asr #8
    113c:	04249f21 	strteq	r9, [r4], #-3873	; 0xf21
    1140:	04280000 	strteq	r0, [r8], #-0
    1144:	00010000 	andeq	r0, r1, r0
    1148:	00000056 	andeq	r0, r0, r6, asr r0
    114c:	00000000 	andeq	r0, r0, r0
    1150:	00024400 	andeq	r4, r2, r0, lsl #8
    1154:	00024800 	andeq	r4, r2, r0, lsl #16
    1158:	08000600 	stmdaeq	r0, {r9, sl}
    115c:	1c007020 	stcne	0, cr7, [r0], {32}
    1160:	0002489f 	muleq	r2, pc, r8	; <UNPREDICTABLE>
    1164:	00025800 	andeq	r5, r2, r0, lsl #16
    1168:	53000100 	movwpl	r0, #256	; 0x100
    116c:	00000258 	andeq	r0, r0, r8, asr r2
    1170:	00000264 	andeq	r0, r0, r4, ror #4
    1174:	20080006 	andcs	r0, r8, r6
    1178:	9f1c0070 	svcls	0x001c0070
    117c:	00000264 	andeq	r0, r0, r4, ror #4
    1180:	00000350 	andeq	r0, r0, r0, asr r3
    1184:	20080006 	andcs	r0, r8, r6
    1188:	9f1c0079 	svcls	0x001c0079
    118c:	00000354 	andeq	r0, r0, r4, asr r3
    1190:	0000035c 	andeq	r0, r0, ip, asr r3
    1194:	20080006 	andcs	r0, r8, r6
    1198:	9f1c0070 	svcls	0x001c0070
    119c:	0000035c 	andeq	r0, r0, ip, asr r3
    11a0:	00000364 	andeq	r0, r0, r4, ror #6
    11a4:	645b0001 	ldrbvs	r0, [fp], #-1
    11a8:	70000003 	andvc	r0, r0, r3
    11ac:	06000003 	streq	r0, [r0], -r3
    11b0:	70200800 	eorvc	r0, r0, r0, lsl #16
    11b4:	709f1c00 	addsvc	r1, pc, r0, lsl #24
    11b8:	7b000003 	blvc	11cc <_init-0x6e34>
    11bc:	06000003 	streq	r0, [r0], -r3
    11c0:	73200800 	teqvc	r0, #0, 16
    11c4:	409f1c00 	addsmi	r1, pc, r0, lsl #24
    11c8:	68000004 	stmdavs	r0, {r2}
    11cc:	06000004 	streq	r0, [r0], -r4
    11d0:	79200800 	stmdbvc	r0!, {fp}
    11d4:	009f1c00 	addseq	r1, pc, r0, lsl #24
    11d8:	00000000 	andeq	r0, r0, r0
    11dc:	3c000000 	stccc	0, cr0, [r0], {-0}
    11e0:	60000000 	andvs	r0, r0, r0
    11e4:	01000000 	mrseq	r0, (UNDEF: 0)
    11e8:	01305000 	teqeq	r0, r0
    11ec:	014c0000 	mrseq	r0, (UNDEF: 76)
    11f0:	00010000 	andeq	r0, r1, r0
    11f4:	00014c50 	andeq	r4, r1, r0, asr ip
    11f8:	00015800 	andeq	r5, r1, r0, lsl #16
    11fc:	59000100 	stmdbpl	r0, {r8}
    1200:	00000178 	andeq	r0, r0, r8, ror r1
    1204:	00000194 	muleq	r0, r4, r1
    1208:	44500001 	ldrbmi	r0, [r0], #-1
    120c:	64000002 	strvs	r0, [r0], #-2
    1210:	01000002 	tsteq	r0, r2
    1214:	02645000 	rsbeq	r5, r4, #0
    1218:	03500000 	cmpeq	r0, #0
    121c:	00010000 	andeq	r0, r1, r0
    1220:	00035459 	andeq	r5, r3, r9, asr r4
    1224:	00037000 	andeq	r7, r3, r0
    1228:	50000100 	andpl	r0, r0, r0, lsl #2
    122c:	00000370 	andeq	r0, r0, r0, ror r3
    1230:	0000037b 	andeq	r0, r0, fp, ror r3
    1234:	40530001 	subsmi	r0, r3, r1
    1238:	68000004 	stmdavs	r0, {r2}
    123c:	01000004 	tsteq	r0, r4
    1240:	00005900 	andeq	r5, r0, r0, lsl #18
    1244:	00000000 	andeq	r0, r0, r0
    1248:	00580000 	subseq	r0, r8, r0
    124c:	01080000 	mrseq	r0, (UNDEF: 8)
    1250:	00010000 	andeq	r0, r1, r0
    1254:	00042855 	andeq	r2, r4, r5, asr r8
    1258:	00043000 	andeq	r3, r4, r0
    125c:	55000100 	strpl	r0, [r0, #-256]	; 0x100
	...
    1268:	0000007c 	andeq	r0, r0, ip, ror r0
    126c:	000000d4 	ldrdeq	r0, [r0], -r4
    1270:	d4580001 	ldrble	r0, [r8], #-1
    1274:	ec000000 	stc	0, cr0, [r0], {-0}
    1278:	07000000 	streq	r0, [r0, -r0]
    127c:	40007400 	andmi	r7, r0, r0, lsl #8
    1280:	9f254024 	svcls	0x00254024
	...
    128c:	0000007c 	andeq	r0, r0, ip, ror r0
    1290:	00000098 	muleq	r0, r8, r0
    1294:	98570001 	ldmdals	r7, {r0}^
    1298:	a4000000 	strge	r0, [r0], #-0
    129c:	01000000 	mrseq	r0, (UNDEF: 0)
    12a0:	00a45200 	adceq	r5, r4, r0, lsl #4
    12a4:	00ac0000 	adceq	r0, ip, r0
    12a8:	00010000 	andeq	r0, r1, r0
    12ac:	0000b057 	andeq	fp, r0, r7, asr r0
    12b0:	00010800 	andeq	r0, r1, r0, lsl #16
    12b4:	57000100 	strpl	r0, [r0, -r0, lsl #2]
    12b8:	00000428 	andeq	r0, r0, r8, lsr #8
    12bc:	00000430 	andeq	r0, r0, r0, lsr r4
    12c0:	00570001 	subseq	r0, r7, r1
    12c4:	00000000 	andeq	r0, r0, r0
    12c8:	c8000000 	stmdagt	r0, {}	; <UNPREDICTABLE>
    12cc:	cc000000 	stcgt	0, cr0, [r0], {-0}
    12d0:	01000000 	mrseq	r0, (UNDEF: 0)
    12d4:	00cc5000 	sbceq	r5, ip, r0
    12d8:	00f00000 	rscseq	r0, r0, r0
    12dc:	00010000 	andeq	r0, r1, r0
    12e0:	0000f056 	andeq	pc, r0, r6, asr r0	; <UNPREDICTABLE>
    12e4:	00010000 	andeq	r0, r1, r0
    12e8:	53000100 	movwpl	r0, #256	; 0x100
    12ec:	00000100 	andeq	r0, r0, r0, lsl #2
    12f0:	00000108 	andeq	r0, r0, r8, lsl #2
    12f4:	28560001 	ldmdacs	r6, {r0}^
    12f8:	30000004 	andcc	r0, r0, r4
    12fc:	01000004 	tsteq	r0, r4
    1300:	00005300 	andeq	r5, r0, r0, lsl #6
    1304:	00000000 	andeq	r0, r0, r0
    1308:	007c0000 	rsbseq	r0, ip, r0
    130c:	00880000 	addeq	r0, r8, r0
    1310:	00060000 	andeq	r0, r6, r0
    1314:	0075007a 	rsbseq	r0, r5, sl, ror r0
    1318:	00889f1d 	addeq	r9, r8, sp, lsl pc
    131c:	00940000 	addseq	r0, r4, r0
    1320:	00010000 	andeq	r0, r1, r0
    1324:	0000b051 	andeq	fp, r0, r1, asr r0
    1328:	0000b400 	andeq	fp, r0, r0, lsl #8
    132c:	51000100 	mrspl	r0, (UNDEF: 16)
    1330:	000000b4 	strheq	r0, [r0], -r4
    1334:	00000108 	andeq	r0, r0, r8, lsl #2
    1338:	285a0001 	ldmdacs	sl, {r0}^
    133c:	30000004 	andcc	r0, r0, r4
    1340:	01000004 	tsteq	r0, r4
    1344:	00005a00 	andeq	r5, r0, r0, lsl #20
    1348:	00000000 	andeq	r0, r0, r0
    134c:	00b40000 	adcseq	r0, r4, r0
    1350:	00e00000 	rsceq	r0, r0, r0
    1354:	00060000 	andeq	r0, r6, r0
    1358:	0075007a 	rsbseq	r0, r5, sl, ror r0
    135c:	00e09f1d 	rsceq	r9, r0, sp, lsl pc
    1360:	00f00000 	rscseq	r0, r0, r0
    1364:	00010000 	andeq	r0, r1, r0
    1368:	00000051 	andeq	r0, r0, r1, asr r0
    136c:	00000000 	andeq	r0, r0, r0
    1370:	00008000 	andeq	r8, r0, r0
    1374:	0000b800 	andeq	fp, r0, r0, lsl #16
    1378:	50000100 	andpl	r0, r0, r0, lsl #2
    137c:	000000d4 	ldrdeq	r0, [r0], -r4
    1380:	00000108 	andeq	r0, r0, r8, lsl #2
    1384:	28580001 	ldmdacs	r8, {r0}^
    1388:	30000004 	andcc	r0, r0, r4
    138c:	01000004 	tsteq	r0, r4
    1390:	00005800 	andeq	r5, r0, r0, lsl #16
    1394:	00000000 	andeq	r0, r0, r0
    1398:	01940000 	orrseq	r0, r4, r0
    139c:	02400000 	subeq	r0, r0, #0
    13a0:	00010000 	andeq	r0, r1, r0
    13a4:	00043057 	andeq	r3, r4, r7, asr r0
    13a8:	00044000 	andeq	r4, r4, r0
    13ac:	57000100 	strpl	r0, [r0, -r0, lsl #2]
	...
    13b8:	00000194 	muleq	r0, r4, r1
    13bc:	00000204 	andeq	r0, r0, r4, lsl #4
    13c0:	305a0001 	subscc	r0, sl, r1
    13c4:	38000004 	stmdacc	r0, {r2}
    13c8:	01000004 	tsteq	r0, r4
    13cc:	00005a00 	andeq	r5, r0, r0, lsl #20
    13d0:	00000000 	andeq	r0, r0, r0
    13d4:	01a80000 			; <UNDEFINED> instruction: 0x01a80000
    13d8:	01ac0000 			; <UNDEFINED> instruction: 0x01ac0000
    13dc:	00010000 	andeq	r0, r1, r0
    13e0:	0001ac50 	andeq	sl, r1, r0, asr ip
    13e4:	0001cc00 	andeq	ip, r1, r0, lsl #24
    13e8:	58000100 	stmdapl	r0, {r8}
    13ec:	000001cc 	andeq	r0, r0, ip, asr #3
    13f0:	000001d8 	ldrdeq	r0, [r0], -r8
    13f4:	d8520001 	ldmdale	r2, {r0}^
    13f8:	40000001 	andmi	r0, r0, r1
    13fc:	01000002 	tsteq	r0, r2
    1400:	04385800 	ldrteq	r5, [r8], #-2048	; 0x800
    1404:	04400000 	strbeq	r0, [r0], #-0
    1408:	00010000 	andeq	r0, r1, r0
    140c:	00000058 	andeq	r0, r0, r8, asr r0
    1410:	00000000 	andeq	r0, r0, r0
    1414:	0001f800 	andeq	pc, r1, r0, lsl #16
    1418:	0001fc00 	andeq	pc, r1, r0, lsl #24
    141c:	50000100 	andpl	r0, r0, r0, lsl #2
    1420:	000001fc 	strdeq	r0, [r0], -ip
    1424:	00000220 	andeq	r0, r0, r0, lsr #4
    1428:	20550001 	subscs	r0, r5, r1
    142c:	30000002 	andcc	r0, r0, r2
    1430:	01000002 	tsteq	r0, r2
    1434:	02305300 	eorseq	r5, r0, #0, 6
    1438:	02400000 	subeq	r0, r0, #0
    143c:	00010000 	andeq	r0, r1, r0
    1440:	00043855 	andeq	r3, r4, r5, asr r8
    1444:	00044000 	andeq	r4, r4, r0
    1448:	53000100 	movwpl	r0, #256	; 0x100
	...
    1454:	00000194 	muleq	r0, r4, r1
    1458:	000001bc 			; <UNDEFINED> instruction: 0x000001bc
    145c:	00750006 	rsbseq	r0, r5, r6
    1460:	9f1d0077 	svcls	0x001d0077
    1464:	000001bc 			; <UNDEFINED> instruction: 0x000001bc
    1468:	000001c8 	andeq	r0, r0, r8, asr #3
    146c:	e0510001 	subs	r0, r1, r1
    1470:	e4000001 	str	r0, [r0], #-1
    1474:	01000001 	tsteq	r0, r1
    1478:	01e45100 	mvneq	r5, r0, lsl #2
    147c:	02400000 	subeq	r0, r0, #0
    1480:	00010000 	andeq	r0, r1, r0
    1484:	0004385b 	andeq	r3, r4, fp, asr r8
    1488:	00044000 	andeq	r4, r4, r0
    148c:	5b000100 	blpl	1894 <_init-0x676c>
	...
    1498:	000001e4 	andeq	r0, r0, r4, ror #3
    149c:	00000210 	andeq	r0, r0, r0, lsl r2
    14a0:	007b0006 	rsbseq	r0, fp, r6
    14a4:	9f1d0077 	svcls	0x001d0077
    14a8:	00000210 	andeq	r0, r0, r0, lsl r2
    14ac:	00000220 	andeq	r0, r0, r0, lsr #4
    14b0:	00510001 	subseq	r0, r1, r1
    14b4:	00000000 	andeq	r0, r0, r0
    14b8:	b4000000 	strlt	r0, [r0], #-0
    14bc:	e8000001 	stmda	r0, {r0}
    14c0:	01000001 	tsteq	r0, r1
    14c4:	02045000 	andeq	r5, r4, #0
    14c8:	02400000 	subeq	r0, r0, #0
    14cc:	00010000 	andeq	r0, r1, r0
    14d0:	0004305a 	andeq	r3, r4, sl, asr r0
    14d4:	00043800 	andeq	r3, r4, r0, lsl #16
    14d8:	50000100 	andpl	r0, r0, r0, lsl #2
    14dc:	00000438 	andeq	r0, r0, r8, lsr r4
    14e0:	00000440 	andeq	r0, r0, r0, asr #8
    14e4:	005a0001 	subseq	r0, sl, r1
    14e8:	00000000 	andeq	r0, r0, r0
    14ec:	18000000 	stmdane	r0, {}	; <UNPREDICTABLE>
    14f0:	3c000003 	stccc	0, cr0, [r0], {3}
    14f4:	01000003 	tsteq	r0, r3
    14f8:	00005500 	andeq	r5, r0, r0, lsl #10
    14fc:	00000000 	andeq	r0, r0, r0
    1500:	03180000 	tsteq	r8, #0
    1504:	033c0000 	teqeq	ip, #0
    1508:	00010000 	andeq	r0, r1, r0
    150c:	00000054 	andeq	r0, r0, r4, asr r0
    1510:	00000000 	andeq	r0, r0, r0
    1514:	0002a000 	andeq	sl, r2, r0
    1518:	00031400 	andeq	r1, r3, r0, lsl #8
    151c:	54000100 	strpl	r0, [r0], #-256	; 0x100
    1520:	00000314 	andeq	r0, r0, r4, lsl r3
    1524:	00000350 	andeq	r0, r0, r0, asr r3
    1528:	00770005 	rsbseq	r0, r7, r5
    152c:	409f2540 	addsmi	r2, pc, r0, asr #10
    1530:	68000004 	stmdavs	r0, {r2}
    1534:	01000004 	tsteq	r0, r4
    1538:	00005400 	andeq	r5, r0, r0, lsl #8
    153c:	00000000 	andeq	r0, r0, r0
    1540:	02a00000 	adceq	r0, r0, #0
    1544:	02e80000 	rsceq	r0, r8, #0
    1548:	00010000 	andeq	r0, r1, r0
    154c:	0002e85a 	andeq	lr, r2, sl, asr r8
    1550:	00035000 	andeq	r5, r3, r0
    1554:	77000700 	strvc	r0, [r0, -r0, lsl #14]
    1558:	40244000 	eormi	r4, r4, r0
    155c:	04409f25 	strbeq	r9, [r0], #-3877	; 0xf25
    1560:	04540000 	ldrbeq	r0, [r4], #-0
    1564:	00070000 	andeq	r0, r7, r0
    1568:	24400077 	strbcs	r0, [r0], #-119	; 0x77
    156c:	549f2540 	ldrpl	r2, [pc], #1344	; 1574 <_init-0x6a8c>
    1570:	68000004 	stmdavs	r0, {r2}
    1574:	01000004 	tsteq	r0, r4
    1578:	00005a00 	andeq	r5, r0, r0, lsl #20
    157c:	00000000 	andeq	r0, r0, r0
    1580:	02a00000 	adceq	r0, r0, #0
    1584:	02ac0000 	adceq	r0, ip, #0
    1588:	00010000 	andeq	r0, r1, r0
    158c:	0002ac5b 	andeq	sl, r2, fp, asr ip
    1590:	0002b000 	andeq	fp, r2, r0
    1594:	52000100 	andpl	r0, r0, #0, 2
    1598:	000002b4 			; <UNDEFINED> instruction: 0x000002b4
    159c:	00000350 	andeq	r0, r0, r0, asr r3
    15a0:	405b0001 	subsmi	r0, fp, r1
    15a4:	54000004 	strpl	r0, [r0], #-4
    15a8:	01000004 	tsteq	r0, r4
    15ac:	04545b00 	ldrbeq	r5, [r4], #-2816	; 0xb00
    15b0:	045c0000 	ldrbeq	r0, [ip], #-0
    15b4:	00010000 	andeq	r0, r1, r0
    15b8:	00045c52 	andeq	r5, r4, r2, asr ip
    15bc:	00046800 	andeq	r6, r4, r0, lsl #16
    15c0:	5b000100 	blpl	19c8 <_init-0x6638>
	...
    15cc:	000002d0 	ldrdeq	r0, [r0], -r0	; <UNPREDICTABLE>
    15d0:	000002d8 	ldrdeq	r0, [r0], -r8
    15d4:	d8500001 	ldmdale	r0, {r0}^
    15d8:	df000002 	svcle	0x00000002
    15dc:	01000002 	tsteq	r0, r2
    15e0:	02e45200 	rsceq	r5, r4, #0, 4
    15e4:	03040000 	movweq	r0, #16384	; 0x4000
    15e8:	00010000 	andeq	r0, r1, r0
    15ec:	00030452 	andeq	r0, r3, r2, asr r4
    15f0:	00030800 	andeq	r0, r3, r0, lsl #16
    15f4:	53000100 	movwpl	r0, #256	; 0x100
    15f8:	0000030c 	andeq	r0, r0, ip, lsl #6
    15fc:	00000354 	andeq	r0, r0, r4, asr r3
    1600:	40520001 	subsmi	r0, r2, r1
    1604:	48000004 	stmdami	r0, {r2}
    1608:	01000004 	tsteq	r0, r4
    160c:	04485300 	strbeq	r5, [r8], #-768	; 0x300
    1610:	04540000 	ldrbeq	r0, [r4], #-0
    1614:	00010000 	andeq	r0, r1, r0
    1618:	00000052 	andeq	r0, r0, r2, asr r0
    161c:	00000000 	andeq	r0, r0, r0
    1620:	0002a000 	andeq	sl, r2, r0
    1624:	0002a800 	andeq	sl, r2, r0, lsl #16
    1628:	51000100 	mrspl	r0, (UNDEF: 16)
    162c:	000002b4 			; <UNDEFINED> instruction: 0x000002b4
    1630:	000002b8 			; <UNDEFINED> instruction: 0x000002b8
    1634:	b8510001 	ldmdalt	r1, {r0}^
    1638:	c7000002 	strgt	r0, [r0, -r2]
    163c:	01000002 	tsteq	r0, r2
    1640:	02cc5300 	sbceq	r5, ip, #0, 6
    1644:	02df0000 	sbcseq	r0, pc, #0
    1648:	00010000 	andeq	r0, r1, r0
    164c:	00000053 	andeq	r0, r0, r3, asr r0
    1650:	00000000 	andeq	r0, r0, r0
    1654:	0002b800 	andeq	fp, r2, r0, lsl #16
    1658:	0002c700 	andeq	ip, r2, r0, lsl #14
    165c:	73000600 	movwvc	r0, #1536	; 0x600
    1660:	1d007400 	cfstrsne	mvf7, [r0, #-0]
    1664:	0002cc9f 	muleq	r2, pc, ip	; <UNPREDICTABLE>
    1668:	0002df00 	andeq	sp, r2, r0, lsl #30
    166c:	73000600 	movwvc	r0, #1536	; 0x600
    1670:	1d007400 	cfstrsne	mvf7, [r0, #-0]
    1674:	0002f49f 	muleq	r2, pc, r4	; <UNPREDICTABLE>
    1678:	00030000 	andeq	r0, r3, r0
    167c:	51000100 	mrspl	r0, (UNDEF: 16)
    1680:	0000030c 	andeq	r0, r0, ip, lsl #6
    1684:	00000318 	andeq	r0, r0, r8, lsl r3
    1688:	18510001 	ldmdane	r1, {r0}^
    168c:	50000003 	andpl	r0, r0, r3
    1690:	01000003 	tsteq	r0, r3
    1694:	00005a00 	andeq	r5, r0, r0, lsl #20
    1698:	00000000 	andeq	r0, r0, r0
    169c:	02a00000 	adceq	r0, r0, #0
    16a0:	02bc0000 	adcseq	r0, ip, #0
    16a4:	00010000 	andeq	r0, r1, r0
    16a8:	0002e850 	andeq	lr, r2, r0, asr r8
    16ac:	00031800 	andeq	r1, r3, r0, lsl #16
    16b0:	5a000100 	bpl	1ab8 <_init-0x6548>
    16b4:	00000440 	andeq	r0, r0, r0, asr #8
    16b8:	00000454 	andeq	r0, r0, r4, asr r4
    16bc:	545a0001 	ldrbpl	r0, [sl], #-1
    16c0:	68000004 	stmdavs	r0, {r2}
    16c4:	01000004 	tsteq	r0, r4
    16c8:	00005000 	andeq	r5, r0, r0
    16cc:	00000000 	andeq	r0, r0, r0
    16d0:	03180000 	tsteq	r8, #0
    16d4:	03500000 	cmpeq	r0, #0
    16d8:	00060000 	andeq	r0, r6, r0
    16dc:	55049354 	strpl	r9, [r4, #-852]	; 0x354
    16e0:	00000493 	muleq	r0, r3, r4
    16e4:	00000000 	andeq	r0, r0, r0
    16e8:	03780000 	cmneq	r8, #0
    16ec:	037b0000 	cmneq	fp, #0
    16f0:	00010000 	andeq	r0, r1, r0
    16f4:	00037b51 	andeq	r7, r3, r1, asr fp
    16f8:	00042800 	andeq	r2, r4, r0, lsl #16
    16fc:	57000100 	strpl	r0, [r0, -r0, lsl #2]
    1700:	00000468 	andeq	r0, r0, r8, ror #8
    1704:	00000470 	andeq	r0, r0, r0, ror r4
    1708:	00570001 	subseq	r0, r7, r1
    170c:	00000000 	andeq	r0, r0, r0
    1710:	94000000 	strls	r0, [r0], #-0
    1714:	28000003 	stmdacs	r0, {r0, r1}
    1718:	01000004 	tsteq	r0, r4
    171c:	04685a00 	strbteq	r5, [r8], #-2560	; 0xa00
    1720:	04700000 	ldrbteq	r0, [r0], #-0
    1724:	00010000 	andeq	r0, r1, r0
    1728:	0000005a 	andeq	r0, r0, sl, asr r0
    172c:	00000000 	andeq	r0, r0, r0
    1730:	00039400 	andeq	r9, r3, r0, lsl #8
    1734:	0003b000 	andeq	fp, r3, r0
    1738:	58000100 	stmdapl	r0, {r8}
    173c:	000003b0 			; <UNDEFINED> instruction: 0x000003b0
    1740:	000003bc 			; <UNDEFINED> instruction: 0x000003bc
    1744:	bc530001 	mrrclt	0, 0, r0, r3, cr1
    1748:	28000003 	stmdacs	r0, {r0, r1}
    174c:	01000004 	tsteq	r0, r4
    1750:	00005800 	andeq	r5, r0, r0, lsl #16
    1754:	00000000 	andeq	r0, r0, r0
    1758:	03dc0000 	bicseq	r0, ip, #0
    175c:	03e00000 	mvneq	r0, #0
    1760:	00010000 	andeq	r0, r1, r0
    1764:	0003e050 	andeq	lr, r3, r0, asr r0
    1768:	00040400 	andeq	r0, r4, r0, lsl #8
    176c:	56000100 	strpl	r0, [r0], -r0, lsl #2
    1770:	00000404 	andeq	r0, r0, r4, lsl #8
    1774:	00000410 	andeq	r0, r0, r0, lsl r4
    1778:	10530001 	subsne	r0, r3, r1
    177c:	18000004 	stmdane	r0, {r2}
    1780:	01000004 	tsteq	r0, r4
    1784:	041c5600 	ldreq	r5, [ip], #-1536	; 0x600
    1788:	04240000 	strteq	r0, [r4], #-0
    178c:	00010000 	andeq	r0, r1, r0
    1790:	00000056 	andeq	r0, r0, r6, asr r0
    1794:	00000000 	andeq	r0, r0, r0
    1798:	00039400 	andeq	r9, r3, r0, lsl #8
    179c:	0003a000 	andeq	sl, r3, r0
    17a0:	76000600 	strvc	r0, [r0], -r0, lsl #12
    17a4:	1d007700 	stcne	7, cr7, [r0, #-0]
    17a8:	0003a09f 	muleq	r3, pc, r0	; <UNPREDICTABLE>
    17ac:	0003ac00 	andeq	sl, r3, r0, lsl #24
    17b0:	51000100 	mrspl	r0, (UNDEF: 16)
    17b4:	000003c4 	andeq	r0, r0, r4, asr #7
    17b8:	000003c8 	andeq	r0, r0, r8, asr #7
    17bc:	c8510001 	ldmdagt	r1, {r0}^
    17c0:	e8000003 	stmda	r0, {r0, r1}
    17c4:	01000003 	tsteq	r0, r3
    17c8:	00005500 	andeq	r5, r0, r0, lsl #10
    17cc:	00000000 	andeq	r0, r0, r0
    17d0:	03c80000 	biceq	r0, r8, #0
    17d4:	03e80000 	mvneq	r0, #0
    17d8:	00060000 	andeq	r0, r6, r0
    17dc:	00770075 	rsbseq	r0, r7, r5, ror r0
    17e0:	03f49f1d 	mvnseq	r9, #29, 30	; 0x74
    17e4:	04000000 	streq	r0, [r0], #-0
    17e8:	00010000 	andeq	r0, r1, r0
    17ec:	00041c51 	andeq	r1, r4, r1, asr ip
    17f0:	00042000 	andeq	r2, r4, r0
    17f4:	51000100 	mrspl	r0, (UNDEF: 16)
    17f8:	00000420 	andeq	r0, r0, r0, lsr #8
    17fc:	00000428 	andeq	r0, r0, r8, lsr #8
    1800:	00550001 	subseq	r0, r5, r1
    1804:	00000000 	andeq	r0, r0, r0
    1808:	98000000 	stmdals	r0, {}	; <UNPREDICTABLE>
    180c:	cc000003 	stcgt	0, cr0, [r0], {3}
    1810:	01000003 	tsteq	r0, r3
    1814:	03e85000 	mvneq	r5, #0
    1818:	04200000 	strteq	r0, [r0], #-0
    181c:	00010000 	andeq	r0, r1, r0
    1820:	00046855 	andeq	r6, r4, r5, asr r8
    1824:	00047000 	andeq	r7, r4, r0
    1828:	50000100 	andpl	r0, r0, r0, lsl #2
	...

Disassembly of section .debug_ranges:

00000000 <.debug_ranges>:
   0:	0000002c 	andeq	r0, r0, ip, lsr #32
   4:	00000130 	andeq	r0, r0, r0, lsr r1
   8:	00000134 	andeq	r0, r0, r4, lsr r1
   c:	0000013c 	andeq	r0, r0, ip, lsr r1
  10:	00000154 	andeq	r0, r0, r4, asr r1
  14:	00000290 	muleq	r0, r0, r2
  18:	000002a0 	andeq	r0, r0, r0, lsr #5
  1c:	000004d0 	ldrdeq	r0, [r0], -r0	; <UNPREDICTABLE>
	...
  28:	000001e0 	andeq	r0, r0, r0, ror #3
  2c:	00000290 	muleq	r0, r0, r2
  30:	000004b0 			; <UNDEFINED> instruction: 0x000004b0
  34:	000004b8 			; <UNDEFINED> instruction: 0x000004b8
	...
  40:	000002b0 			; <UNDEFINED> instruction: 0x000002b0
  44:	000002bc 			; <UNDEFINED> instruction: 0x000002bc
  48:	000002c4 	andeq	r0, r0, r4, asr #5
  4c:	00000384 	andeq	r0, r0, r4, lsl #7
  50:	000004c8 	andeq	r0, r0, r8, asr #9
  54:	000004d0 	ldrdeq	r0, [r0], -r0	; <UNPREDICTABLE>
	...
  60:	00000384 	andeq	r0, r0, r4, lsl #7
  64:	000004b0 			; <UNDEFINED> instruction: 0x000004b0
  68:	000004b8 			; <UNDEFINED> instruction: 0x000004b8
  6c:	000004c8 	andeq	r0, r0, r8, asr #9
	...
  78:	00000398 	muleq	r0, r8, r3
  7c:	000003a4 	andeq	r0, r0, r4, lsr #7
  80:	000003a8 	andeq	r0, r0, r8, lsr #7
  84:	000003e4 	andeq	r0, r0, r4, ror #7
  88:	000003e8 	andeq	r0, r0, r8, ror #7
  8c:	00000474 	andeq	r0, r0, r4, ror r4
  90:	00000478 	andeq	r0, r0, r8, ror r4
  94:	0000047c 	andeq	r0, r0, ip, ror r4
  98:	000004b8 			; <UNDEFINED> instruction: 0x000004b8
  9c:	000004c8 	andeq	r0, r0, r8, asr #9
	...
  a8:	00000004 	andeq	r0, r0, r4
  ac:	00000008 	andeq	r0, r0, r8
  b0:	0000001c 	andeq	r0, r0, ip, lsl r0
  b4:	00000108 	andeq	r0, r0, r8, lsl #2
  b8:	00000118 	andeq	r0, r0, r8, lsl r1
  bc:	00000234 	andeq	r0, r0, r4, lsr r2
  c0:	00000244 	andeq	r0, r0, r4, asr #4
  c4:	00000344 	andeq	r0, r0, r4, asr #6
  c8:	00000354 	andeq	r0, r0, r4, asr r3
  cc:	00000470 	andeq	r0, r0, r0, ror r4
	...
  d8:	00000050 	andeq	r0, r0, r0, asr r0
  dc:	00000054 	andeq	r0, r0, r4, asr r0
  e0:	00000058 	andeq	r0, r0, r8, asr r0
  e4:	00000108 	andeq	r0, r0, r8, lsl #2
  e8:	00000428 	andeq	r0, r0, r8, lsr #8
  ec:	00000430 	andeq	r0, r0, r0, lsr r4
	...
  f8:	00000194 	muleq	r0, r4, r1
  fc:	00000234 	andeq	r0, r0, r4, lsr r2
 100:	00000430 	andeq	r0, r0, r0, lsr r4
 104:	00000440 	andeq	r0, r0, r0, asr #8
	...
 110:	00000244 	andeq	r0, r0, r4, asr #4
 114:	00000344 	andeq	r0, r0, r4, asr #6
 118:	00000440 	andeq	r0, r0, r0, asr #8
 11c:	00000468 	andeq	r0, r0, r8, ror #8
	...
 128:	00000258 	andeq	r0, r0, r8, asr r2
 12c:	00000264 	andeq	r0, r0, r4, ror #4
 130:	00000268 	andeq	r0, r0, r8, ror #4
 134:	0000029c 	muleq	r0, ip, r2
 138:	000002a0 	andeq	r0, r0, r0, lsr #5
 13c:	00000310 	andeq	r0, r0, r0, lsl r3
 140:	00000314 	andeq	r0, r0, r4, lsl r3
 144:	00000318 	andeq	r0, r0, r8, lsl r3
 148:	00000440 	andeq	r0, r0, r0, asr #8
 14c:	00000468 	andeq	r0, r0, r8, ror #8
	...
 158:	00000364 	andeq	r0, r0, r4, ror #6
 15c:	00000370 	andeq	r0, r0, r0, ror r3
 160:	00000378 	andeq	r0, r0, r8, ror r3
 164:	00000428 	andeq	r0, r0, r8, lsr #8
 168:	00000468 	andeq	r0, r0, r8, ror #8
 16c:	00000470 	andeq	r0, r0, r0, ror r4
	...

Disassembly of section .ARM.attributes:

00000000 <_stack-0x80000>:
   0:	00003341 	andeq	r3, r0, r1, asr #6
   4:	61656100 	cmnvs	r5, r0, lsl #2
   8:	01006962 	tsteq	r0, r2, ror #18
   c:	00000029 	andeq	r0, r0, r9, lsr #32
  10:	4d524105 	ldfmie	f4, [r2, #-20]	; 0xffffffec
  14:	36373131 			; <UNDEFINED> instruction: 0x36373131
  18:	2d465a4a 	vstrcs	s11, [r6, #-296]	; 0xfffffed8
  1c:	07060053 	smlsdeq	r6, r3, r0, r0
  20:	01090108 	tsteq	r9, r8, lsl #2
  24:	01140412 	tsteq	r4, r2, lsl r4
  28:	03170115 	tsteq	r7, #1073741829	; 0x40000005
  2c:	011a0118 	tsteq	sl, r8, lsl r1
  30:	01440122 	cmpeq	r4, r2, lsr #2
